ARM GAS  /var/folders/jn/652hmfdj2m99syhs9p34dk640000gq/T//ccGWydQU.s 			page 1


   1              		.syntax unified
   2              		.cpu cortex-m3
   3              		.fpu softvfp
   4              		.eabi_attribute 20, 1
   5              		.eabi_attribute 21, 1
   6              		.eabi_attribute 23, 3
   7              		.eabi_attribute 24, 1
   8              		.eabi_attribute 25, 1
   9              		.eabi_attribute 26, 1
  10              		.eabi_attribute 30, 1
  11              		.eabi_attribute 34, 1
  12              		.eabi_attribute 18, 4
  13              		.thumb
  14              		.syntax unified
  15              		.file	"stm32f1xx_hal_dma.c"
  16              		.text
  17              	.Ltext0:
  18              		.cfi_sections	.debug_frame
  19              		.section	.text.DMA_SetConfig,"ax",%progbits
  20              		.align	2
  21              		.thumb
  22              		.thumb_func
  24              	DMA_SetConfig:
  25              	.LFB73:
  26              		.file 1 "./Drivers_V1.0.4/STM32F1xx_HAL_Driver/Src/stm32f1xx_hal_dma.c"
   1:./Drivers_V1.0.4/STM32F1xx_HAL_Driver/Src/stm32f1xx_hal_dma.c **** /**
   2:./Drivers_V1.0.4/STM32F1xx_HAL_Driver/Src/stm32f1xx_hal_dma.c ****   ******************************************************************************
   3:./Drivers_V1.0.4/STM32F1xx_HAL_Driver/Src/stm32f1xx_hal_dma.c ****   * @file    stm32f1xx_hal_dma.c
   4:./Drivers_V1.0.4/STM32F1xx_HAL_Driver/Src/stm32f1xx_hal_dma.c ****   * @author  MCD Application Team
   5:./Drivers_V1.0.4/STM32F1xx_HAL_Driver/Src/stm32f1xx_hal_dma.c ****   * @version V1.0.4
   6:./Drivers_V1.0.4/STM32F1xx_HAL_Driver/Src/stm32f1xx_hal_dma.c ****   * @date    29-April-2016
   7:./Drivers_V1.0.4/STM32F1xx_HAL_Driver/Src/stm32f1xx_hal_dma.c ****   * @brief   DMA HAL module driver.
   8:./Drivers_V1.0.4/STM32F1xx_HAL_Driver/Src/stm32f1xx_hal_dma.c ****   *    
   9:./Drivers_V1.0.4/STM32F1xx_HAL_Driver/Src/stm32f1xx_hal_dma.c ****   *          This file provides firmware functions to manage the following 
  10:./Drivers_V1.0.4/STM32F1xx_HAL_Driver/Src/stm32f1xx_hal_dma.c ****   *          functionalities of the Direct Memory Access (DMA) peripheral:
  11:./Drivers_V1.0.4/STM32F1xx_HAL_Driver/Src/stm32f1xx_hal_dma.c ****   *           + Initialization and de-initialization functions
  12:./Drivers_V1.0.4/STM32F1xx_HAL_Driver/Src/stm32f1xx_hal_dma.c ****   *           + IO operation functions
  13:./Drivers_V1.0.4/STM32F1xx_HAL_Driver/Src/stm32f1xx_hal_dma.c ****   *           + Peripheral State and errors functions
  14:./Drivers_V1.0.4/STM32F1xx_HAL_Driver/Src/stm32f1xx_hal_dma.c ****   @verbatim     
  15:./Drivers_V1.0.4/STM32F1xx_HAL_Driver/Src/stm32f1xx_hal_dma.c ****   ==============================================================================      
  16:./Drivers_V1.0.4/STM32F1xx_HAL_Driver/Src/stm32f1xx_hal_dma.c ****                         ##### How to use this driver #####
  17:./Drivers_V1.0.4/STM32F1xx_HAL_Driver/Src/stm32f1xx_hal_dma.c ****   ============================================================================== 
  18:./Drivers_V1.0.4/STM32F1xx_HAL_Driver/Src/stm32f1xx_hal_dma.c ****   [..]
  19:./Drivers_V1.0.4/STM32F1xx_HAL_Driver/Src/stm32f1xx_hal_dma.c ****    (#) Enable and configure the peripheral to be connected to the DMA Channel
  20:./Drivers_V1.0.4/STM32F1xx_HAL_Driver/Src/stm32f1xx_hal_dma.c ****        (except for internal SRAM / FLASH memories: no initialization is 
  21:./Drivers_V1.0.4/STM32F1xx_HAL_Driver/Src/stm32f1xx_hal_dma.c ****        necessary) please refer to Reference manual for connection between peripherals
  22:./Drivers_V1.0.4/STM32F1xx_HAL_Driver/Src/stm32f1xx_hal_dma.c ****        and DMA requests.
  23:./Drivers_V1.0.4/STM32F1xx_HAL_Driver/Src/stm32f1xx_hal_dma.c **** 
  24:./Drivers_V1.0.4/STM32F1xx_HAL_Driver/Src/stm32f1xx_hal_dma.c ****    (#) For a given Channel, program the required configuration through the following parameters:   
  25:./Drivers_V1.0.4/STM32F1xx_HAL_Driver/Src/stm32f1xx_hal_dma.c ****        Transfer Direction, Source and Destination data formats, 
  26:./Drivers_V1.0.4/STM32F1xx_HAL_Driver/Src/stm32f1xx_hal_dma.c ****        Circular or Normal mode, Channel Priority level, Source and Destination Increment mode, 
  27:./Drivers_V1.0.4/STM32F1xx_HAL_Driver/Src/stm32f1xx_hal_dma.c ****        using HAL_DMA_Init() function.
  28:./Drivers_V1.0.4/STM32F1xx_HAL_Driver/Src/stm32f1xx_hal_dma.c **** 
  29:./Drivers_V1.0.4/STM32F1xx_HAL_Driver/Src/stm32f1xx_hal_dma.c ****    (#) Use HAL_DMA_GetState() function to return the DMA state and HAL_DMA_GetError() in case of er
  30:./Drivers_V1.0.4/STM32F1xx_HAL_Driver/Src/stm32f1xx_hal_dma.c ****        detection.
  31:./Drivers_V1.0.4/STM32F1xx_HAL_Driver/Src/stm32f1xx_hal_dma.c ****                     
  32:./Drivers_V1.0.4/STM32F1xx_HAL_Driver/Src/stm32f1xx_hal_dma.c ****    (#) Use HAL_DMA_Abort() function to abort the current transfer
ARM GAS  /var/folders/jn/652hmfdj2m99syhs9p34dk640000gq/T//ccGWydQU.s 			page 2


  33:./Drivers_V1.0.4/STM32F1xx_HAL_Driver/Src/stm32f1xx_hal_dma.c ****                    
  34:./Drivers_V1.0.4/STM32F1xx_HAL_Driver/Src/stm32f1xx_hal_dma.c ****      -@-   In Memory-to-Memory transfer mode, Circular mode is not allowed.
  35:./Drivers_V1.0.4/STM32F1xx_HAL_Driver/Src/stm32f1xx_hal_dma.c ****      *** Polling mode IO operation ***
  36:./Drivers_V1.0.4/STM32F1xx_HAL_Driver/Src/stm32f1xx_hal_dma.c ****      =================================   
  37:./Drivers_V1.0.4/STM32F1xx_HAL_Driver/Src/stm32f1xx_hal_dma.c ****     [..] 
  38:./Drivers_V1.0.4/STM32F1xx_HAL_Driver/Src/stm32f1xx_hal_dma.c ****       (+) Use HAL_DMA_Start() to start DMA transfer after the configuration of Source 
  39:./Drivers_V1.0.4/STM32F1xx_HAL_Driver/Src/stm32f1xx_hal_dma.c ****           address and destination address and the Length of data to be transferred
  40:./Drivers_V1.0.4/STM32F1xx_HAL_Driver/Src/stm32f1xx_hal_dma.c ****       (+) Use HAL_DMA_PollForTransfer() to poll for the end of current transfer, in this  
  41:./Drivers_V1.0.4/STM32F1xx_HAL_Driver/Src/stm32f1xx_hal_dma.c ****           case a fixed Timeout can be configured by User depending from his application.
  42:./Drivers_V1.0.4/STM32F1xx_HAL_Driver/Src/stm32f1xx_hal_dma.c **** 
  43:./Drivers_V1.0.4/STM32F1xx_HAL_Driver/Src/stm32f1xx_hal_dma.c ****      *** Interrupt mode IO operation ***    
  44:./Drivers_V1.0.4/STM32F1xx_HAL_Driver/Src/stm32f1xx_hal_dma.c ****      =================================== 
  45:./Drivers_V1.0.4/STM32F1xx_HAL_Driver/Src/stm32f1xx_hal_dma.c ****     [..]
  46:./Drivers_V1.0.4/STM32F1xx_HAL_Driver/Src/stm32f1xx_hal_dma.c ****       (+) Configure the DMA interrupt priority using HAL_NVIC_SetPriority()
  47:./Drivers_V1.0.4/STM32F1xx_HAL_Driver/Src/stm32f1xx_hal_dma.c ****       (+) Enable the DMA IRQ handler using HAL_NVIC_EnableIRQ() 
  48:./Drivers_V1.0.4/STM32F1xx_HAL_Driver/Src/stm32f1xx_hal_dma.c ****       (+) Use HAL_DMA_Start_IT() to start DMA transfer after the configuration of  
  49:./Drivers_V1.0.4/STM32F1xx_HAL_Driver/Src/stm32f1xx_hal_dma.c ****           Source address and destination address and the Length of data to be transferred. 
  50:./Drivers_V1.0.4/STM32F1xx_HAL_Driver/Src/stm32f1xx_hal_dma.c ****           In this case the DMA interrupt is configured 
  51:./Drivers_V1.0.4/STM32F1xx_HAL_Driver/Src/stm32f1xx_hal_dma.c ****       (+) Use HAL_DMAy_Channelx_IRQHandler() called under DMA_IRQHandler() Interrupt subroutine
  52:./Drivers_V1.0.4/STM32F1xx_HAL_Driver/Src/stm32f1xx_hal_dma.c ****       (+) At the end of data transfer HAL_DMA_IRQHandler() function is executed and user can 
  53:./Drivers_V1.0.4/STM32F1xx_HAL_Driver/Src/stm32f1xx_hal_dma.c ****           add his own function by customization of function pointer XferCpltCallback and 
  54:./Drivers_V1.0.4/STM32F1xx_HAL_Driver/Src/stm32f1xx_hal_dma.c ****           XferErrorCallback (i.e a member of DMA handle structure). 
  55:./Drivers_V1.0.4/STM32F1xx_HAL_Driver/Src/stm32f1xx_hal_dma.c **** 
  56:./Drivers_V1.0.4/STM32F1xx_HAL_Driver/Src/stm32f1xx_hal_dma.c ****      *** DMA HAL driver macros list ***
  57:./Drivers_V1.0.4/STM32F1xx_HAL_Driver/Src/stm32f1xx_hal_dma.c ****      ============================================= 
  58:./Drivers_V1.0.4/STM32F1xx_HAL_Driver/Src/stm32f1xx_hal_dma.c ****      [..]
  59:./Drivers_V1.0.4/STM32F1xx_HAL_Driver/Src/stm32f1xx_hal_dma.c ****        Below the list of most used macros in DMA HAL driver.
  60:./Drivers_V1.0.4/STM32F1xx_HAL_Driver/Src/stm32f1xx_hal_dma.c **** 
  61:./Drivers_V1.0.4/STM32F1xx_HAL_Driver/Src/stm32f1xx_hal_dma.c ****        (+) __HAL_DMA_ENABLE: Enable the specified DMA Channel.
  62:./Drivers_V1.0.4/STM32F1xx_HAL_Driver/Src/stm32f1xx_hal_dma.c ****        (+) __HAL_DMA_DISABLE: Disable the specified DMA Channel.
  63:./Drivers_V1.0.4/STM32F1xx_HAL_Driver/Src/stm32f1xx_hal_dma.c ****        (+) __HAL_DMA_GET_FLAG: Get the DMA Channel pending flags.
  64:./Drivers_V1.0.4/STM32F1xx_HAL_Driver/Src/stm32f1xx_hal_dma.c ****        (+) __HAL_DMA_CLEAR_FLAG: Clear the DMA Channel pending flags.
  65:./Drivers_V1.0.4/STM32F1xx_HAL_Driver/Src/stm32f1xx_hal_dma.c ****        (+) __HAL_DMA_ENABLE_IT: Enable the specified DMA Channel interrupts.
  66:./Drivers_V1.0.4/STM32F1xx_HAL_Driver/Src/stm32f1xx_hal_dma.c ****        (+) __HAL_DMA_DISABLE_IT: Disable the specified DMA Channel interrupts.
  67:./Drivers_V1.0.4/STM32F1xx_HAL_Driver/Src/stm32f1xx_hal_dma.c ****        (+) __HAL_DMA_GET_IT_SOURCE: Check whether the specified DMA Channel interrupt has occurred 
  68:./Drivers_V1.0.4/STM32F1xx_HAL_Driver/Src/stm32f1xx_hal_dma.c **** 
  69:./Drivers_V1.0.4/STM32F1xx_HAL_Driver/Src/stm32f1xx_hal_dma.c ****      [..] 
  70:./Drivers_V1.0.4/STM32F1xx_HAL_Driver/Src/stm32f1xx_hal_dma.c ****       (@) You can refer to the DMA HAL driver header file for more useful macros  
  71:./Drivers_V1.0.4/STM32F1xx_HAL_Driver/Src/stm32f1xx_hal_dma.c **** 
  72:./Drivers_V1.0.4/STM32F1xx_HAL_Driver/Src/stm32f1xx_hal_dma.c ****   @endverbatim
  73:./Drivers_V1.0.4/STM32F1xx_HAL_Driver/Src/stm32f1xx_hal_dma.c ****   ******************************************************************************
  74:./Drivers_V1.0.4/STM32F1xx_HAL_Driver/Src/stm32f1xx_hal_dma.c ****   * @attention
  75:./Drivers_V1.0.4/STM32F1xx_HAL_Driver/Src/stm32f1xx_hal_dma.c ****   *
  76:./Drivers_V1.0.4/STM32F1xx_HAL_Driver/Src/stm32f1xx_hal_dma.c ****   * <h2><center>&copy; COPYRIGHT(c) 2016 STMicroelectronics</center></h2>
  77:./Drivers_V1.0.4/STM32F1xx_HAL_Driver/Src/stm32f1xx_hal_dma.c ****   *
  78:./Drivers_V1.0.4/STM32F1xx_HAL_Driver/Src/stm32f1xx_hal_dma.c ****   * Redistribution and use in source and binary forms, with or without modification,
  79:./Drivers_V1.0.4/STM32F1xx_HAL_Driver/Src/stm32f1xx_hal_dma.c ****   * are permitted provided that the following conditions are met:
  80:./Drivers_V1.0.4/STM32F1xx_HAL_Driver/Src/stm32f1xx_hal_dma.c ****   *   1. Redistributions of source code must retain the above copyright notice,
  81:./Drivers_V1.0.4/STM32F1xx_HAL_Driver/Src/stm32f1xx_hal_dma.c ****   *      this list of conditions and the following disclaimer.
  82:./Drivers_V1.0.4/STM32F1xx_HAL_Driver/Src/stm32f1xx_hal_dma.c ****   *   2. Redistributions in binary form must reproduce the above copyright notice,
  83:./Drivers_V1.0.4/STM32F1xx_HAL_Driver/Src/stm32f1xx_hal_dma.c ****   *      this list of conditions and the following disclaimer in the documentation
  84:./Drivers_V1.0.4/STM32F1xx_HAL_Driver/Src/stm32f1xx_hal_dma.c ****   *      and/or other materials provided with the distribution.
  85:./Drivers_V1.0.4/STM32F1xx_HAL_Driver/Src/stm32f1xx_hal_dma.c ****   *   3. Neither the name of STMicroelectronics nor the names of its contributors
  86:./Drivers_V1.0.4/STM32F1xx_HAL_Driver/Src/stm32f1xx_hal_dma.c ****   *      may be used to endorse or promote products derived from this software
  87:./Drivers_V1.0.4/STM32F1xx_HAL_Driver/Src/stm32f1xx_hal_dma.c ****   *      without specific prior written permission.
  88:./Drivers_V1.0.4/STM32F1xx_HAL_Driver/Src/stm32f1xx_hal_dma.c ****   *
  89:./Drivers_V1.0.4/STM32F1xx_HAL_Driver/Src/stm32f1xx_hal_dma.c ****   * THIS SOFTWARE IS PROVIDED BY THE COPYRIGHT HOLDERS AND CONTRIBUTORS "AS IS"
ARM GAS  /var/folders/jn/652hmfdj2m99syhs9p34dk640000gq/T//ccGWydQU.s 			page 3


  90:./Drivers_V1.0.4/STM32F1xx_HAL_Driver/Src/stm32f1xx_hal_dma.c ****   * AND ANY EXPRESS OR IMPLIED WARRANTIES, INCLUDING, BUT NOT LIMITED TO, THE
  91:./Drivers_V1.0.4/STM32F1xx_HAL_Driver/Src/stm32f1xx_hal_dma.c ****   * IMPLIED WARRANTIES OF MERCHANTABILITY AND FITNESS FOR A PARTICULAR PURPOSE ARE
  92:./Drivers_V1.0.4/STM32F1xx_HAL_Driver/Src/stm32f1xx_hal_dma.c ****   * DISCLAIMED. IN NO EVENT SHALL THE COPYRIGHT HOLDER OR CONTRIBUTORS BE LIABLE
  93:./Drivers_V1.0.4/STM32F1xx_HAL_Driver/Src/stm32f1xx_hal_dma.c ****   * FOR ANY DIRECT, INDIRECT, INCIDENTAL, SPECIAL, EXEMPLARY, OR CONSEQUENTIAL
  94:./Drivers_V1.0.4/STM32F1xx_HAL_Driver/Src/stm32f1xx_hal_dma.c ****   * DAMAGES (INCLUDING, BUT NOT LIMITED TO, PROCUREMENT OF SUBSTITUTE GOODS OR
  95:./Drivers_V1.0.4/STM32F1xx_HAL_Driver/Src/stm32f1xx_hal_dma.c ****   * SERVICES; LOSS OF USE, DATA, OR PROFITS; OR BUSINESS INTERRUPTION) HOWEVER
  96:./Drivers_V1.0.4/STM32F1xx_HAL_Driver/Src/stm32f1xx_hal_dma.c ****   * CAUSED AND ON ANY THEORY OF LIABILITY, WHETHER IN CONTRACT, STRICT LIABILITY,
  97:./Drivers_V1.0.4/STM32F1xx_HAL_Driver/Src/stm32f1xx_hal_dma.c ****   * OR TORT (INCLUDING NEGLIGENCE OR OTHERWISE) ARISING IN ANY WAY OUT OF THE USE
  98:./Drivers_V1.0.4/STM32F1xx_HAL_Driver/Src/stm32f1xx_hal_dma.c ****   * OF THIS SOFTWARE, EVEN IF ADVISED OF THE POSSIBILITY OF SUCH DAMAGE.
  99:./Drivers_V1.0.4/STM32F1xx_HAL_Driver/Src/stm32f1xx_hal_dma.c ****   *
 100:./Drivers_V1.0.4/STM32F1xx_HAL_Driver/Src/stm32f1xx_hal_dma.c ****   ******************************************************************************
 101:./Drivers_V1.0.4/STM32F1xx_HAL_Driver/Src/stm32f1xx_hal_dma.c ****   */ 
 102:./Drivers_V1.0.4/STM32F1xx_HAL_Driver/Src/stm32f1xx_hal_dma.c **** 
 103:./Drivers_V1.0.4/STM32F1xx_HAL_Driver/Src/stm32f1xx_hal_dma.c **** /* Includes ------------------------------------------------------------------*/
 104:./Drivers_V1.0.4/STM32F1xx_HAL_Driver/Src/stm32f1xx_hal_dma.c **** #include "stm32f1xx_hal.h"
 105:./Drivers_V1.0.4/STM32F1xx_HAL_Driver/Src/stm32f1xx_hal_dma.c **** 
 106:./Drivers_V1.0.4/STM32F1xx_HAL_Driver/Src/stm32f1xx_hal_dma.c **** /** @addtogroup STM32F1xx_HAL_Driver
 107:./Drivers_V1.0.4/STM32F1xx_HAL_Driver/Src/stm32f1xx_hal_dma.c ****   * @{
 108:./Drivers_V1.0.4/STM32F1xx_HAL_Driver/Src/stm32f1xx_hal_dma.c ****   */
 109:./Drivers_V1.0.4/STM32F1xx_HAL_Driver/Src/stm32f1xx_hal_dma.c **** 
 110:./Drivers_V1.0.4/STM32F1xx_HAL_Driver/Src/stm32f1xx_hal_dma.c **** /** @defgroup DMA DMA
 111:./Drivers_V1.0.4/STM32F1xx_HAL_Driver/Src/stm32f1xx_hal_dma.c ****   * @brief DMA HAL module driver
 112:./Drivers_V1.0.4/STM32F1xx_HAL_Driver/Src/stm32f1xx_hal_dma.c ****   * @{
 113:./Drivers_V1.0.4/STM32F1xx_HAL_Driver/Src/stm32f1xx_hal_dma.c ****   */
 114:./Drivers_V1.0.4/STM32F1xx_HAL_Driver/Src/stm32f1xx_hal_dma.c **** 
 115:./Drivers_V1.0.4/STM32F1xx_HAL_Driver/Src/stm32f1xx_hal_dma.c **** #ifdef HAL_DMA_MODULE_ENABLED
 116:./Drivers_V1.0.4/STM32F1xx_HAL_Driver/Src/stm32f1xx_hal_dma.c **** 
 117:./Drivers_V1.0.4/STM32F1xx_HAL_Driver/Src/stm32f1xx_hal_dma.c **** /* Private typedef -----------------------------------------------------------*/
 118:./Drivers_V1.0.4/STM32F1xx_HAL_Driver/Src/stm32f1xx_hal_dma.c **** /* Private define ------------------------------------------------------------*/
 119:./Drivers_V1.0.4/STM32F1xx_HAL_Driver/Src/stm32f1xx_hal_dma.c **** /** @defgroup DMA_Private_Constants DMA Private Constants
 120:./Drivers_V1.0.4/STM32F1xx_HAL_Driver/Src/stm32f1xx_hal_dma.c ****   * @{
 121:./Drivers_V1.0.4/STM32F1xx_HAL_Driver/Src/stm32f1xx_hal_dma.c ****   */
 122:./Drivers_V1.0.4/STM32F1xx_HAL_Driver/Src/stm32f1xx_hal_dma.c **** #define HAL_TIMEOUT_DMA_ABORT    ((uint32_t)1000)  /* 1s */
 123:./Drivers_V1.0.4/STM32F1xx_HAL_Driver/Src/stm32f1xx_hal_dma.c **** /**
 124:./Drivers_V1.0.4/STM32F1xx_HAL_Driver/Src/stm32f1xx_hal_dma.c ****   * @}
 125:./Drivers_V1.0.4/STM32F1xx_HAL_Driver/Src/stm32f1xx_hal_dma.c ****   */
 126:./Drivers_V1.0.4/STM32F1xx_HAL_Driver/Src/stm32f1xx_hal_dma.c **** 
 127:./Drivers_V1.0.4/STM32F1xx_HAL_Driver/Src/stm32f1xx_hal_dma.c **** /* Private macro -------------------------------------------------------------*/
 128:./Drivers_V1.0.4/STM32F1xx_HAL_Driver/Src/stm32f1xx_hal_dma.c **** /* Private variables ---------------------------------------------------------*/
 129:./Drivers_V1.0.4/STM32F1xx_HAL_Driver/Src/stm32f1xx_hal_dma.c **** /* Private function prototypes -----------------------------------------------*/
 130:./Drivers_V1.0.4/STM32F1xx_HAL_Driver/Src/stm32f1xx_hal_dma.c **** /** @defgroup DMA_Private_Functions DMA Private Functions
 131:./Drivers_V1.0.4/STM32F1xx_HAL_Driver/Src/stm32f1xx_hal_dma.c ****   * @{
 132:./Drivers_V1.0.4/STM32F1xx_HAL_Driver/Src/stm32f1xx_hal_dma.c ****   */
 133:./Drivers_V1.0.4/STM32F1xx_HAL_Driver/Src/stm32f1xx_hal_dma.c **** static void DMA_SetConfig(DMA_HandleTypeDef *hdma, uint32_t SrcAddress, uint32_t DstAddress, uint32
 134:./Drivers_V1.0.4/STM32F1xx_HAL_Driver/Src/stm32f1xx_hal_dma.c **** /**
 135:./Drivers_V1.0.4/STM32F1xx_HAL_Driver/Src/stm32f1xx_hal_dma.c ****   * @}
 136:./Drivers_V1.0.4/STM32F1xx_HAL_Driver/Src/stm32f1xx_hal_dma.c ****   */
 137:./Drivers_V1.0.4/STM32F1xx_HAL_Driver/Src/stm32f1xx_hal_dma.c **** 
 138:./Drivers_V1.0.4/STM32F1xx_HAL_Driver/Src/stm32f1xx_hal_dma.c **** /* Exported functions ---------------------------------------------------------*/
 139:./Drivers_V1.0.4/STM32F1xx_HAL_Driver/Src/stm32f1xx_hal_dma.c **** 
 140:./Drivers_V1.0.4/STM32F1xx_HAL_Driver/Src/stm32f1xx_hal_dma.c **** /** @defgroup DMA_Exported_Functions DMA Exported Functions
 141:./Drivers_V1.0.4/STM32F1xx_HAL_Driver/Src/stm32f1xx_hal_dma.c ****   * @{
 142:./Drivers_V1.0.4/STM32F1xx_HAL_Driver/Src/stm32f1xx_hal_dma.c ****   */
 143:./Drivers_V1.0.4/STM32F1xx_HAL_Driver/Src/stm32f1xx_hal_dma.c **** 
 144:./Drivers_V1.0.4/STM32F1xx_HAL_Driver/Src/stm32f1xx_hal_dma.c **** /** @defgroup DMA_Exported_Functions_Group1 Initialization and de-initialization functions
 145:./Drivers_V1.0.4/STM32F1xx_HAL_Driver/Src/stm32f1xx_hal_dma.c ****  *  @brief   Initialization and de-initialization functions 
 146:./Drivers_V1.0.4/STM32F1xx_HAL_Driver/Src/stm32f1xx_hal_dma.c ****  *
ARM GAS  /var/folders/jn/652hmfdj2m99syhs9p34dk640000gq/T//ccGWydQU.s 			page 4


 147:./Drivers_V1.0.4/STM32F1xx_HAL_Driver/Src/stm32f1xx_hal_dma.c **** @verbatim   
 148:./Drivers_V1.0.4/STM32F1xx_HAL_Driver/Src/stm32f1xx_hal_dma.c ****  ===============================================================================
 149:./Drivers_V1.0.4/STM32F1xx_HAL_Driver/Src/stm32f1xx_hal_dma.c ****              ##### Initialization and de-initialization functions  #####
 150:./Drivers_V1.0.4/STM32F1xx_HAL_Driver/Src/stm32f1xx_hal_dma.c ****  ===============================================================================  
 151:./Drivers_V1.0.4/STM32F1xx_HAL_Driver/Src/stm32f1xx_hal_dma.c ****     [..]
 152:./Drivers_V1.0.4/STM32F1xx_HAL_Driver/Src/stm32f1xx_hal_dma.c ****     This section provides functions allowing to initialize the DMA Channel source
 153:./Drivers_V1.0.4/STM32F1xx_HAL_Driver/Src/stm32f1xx_hal_dma.c ****     and destination addresses, incrementation and data sizes, transfer direction, 
 154:./Drivers_V1.0.4/STM32F1xx_HAL_Driver/Src/stm32f1xx_hal_dma.c ****     circular/normal mode selection, memory-to-memory mode selection and Channel priority value.
 155:./Drivers_V1.0.4/STM32F1xx_HAL_Driver/Src/stm32f1xx_hal_dma.c ****     [..]
 156:./Drivers_V1.0.4/STM32F1xx_HAL_Driver/Src/stm32f1xx_hal_dma.c ****     The HAL_DMA_Init() function follows the DMA configuration procedures as described in
 157:./Drivers_V1.0.4/STM32F1xx_HAL_Driver/Src/stm32f1xx_hal_dma.c ****     reference manual.  
 158:./Drivers_V1.0.4/STM32F1xx_HAL_Driver/Src/stm32f1xx_hal_dma.c **** 
 159:./Drivers_V1.0.4/STM32F1xx_HAL_Driver/Src/stm32f1xx_hal_dma.c **** @endverbatim
 160:./Drivers_V1.0.4/STM32F1xx_HAL_Driver/Src/stm32f1xx_hal_dma.c ****   * @{
 161:./Drivers_V1.0.4/STM32F1xx_HAL_Driver/Src/stm32f1xx_hal_dma.c ****   */
 162:./Drivers_V1.0.4/STM32F1xx_HAL_Driver/Src/stm32f1xx_hal_dma.c ****   
 163:./Drivers_V1.0.4/STM32F1xx_HAL_Driver/Src/stm32f1xx_hal_dma.c **** /**
 164:./Drivers_V1.0.4/STM32F1xx_HAL_Driver/Src/stm32f1xx_hal_dma.c ****   * @brief  Initializes the DMA according to the specified
 165:./Drivers_V1.0.4/STM32F1xx_HAL_Driver/Src/stm32f1xx_hal_dma.c ****   *         parameters in the DMA_InitTypeDef and create the associated handle.
 166:./Drivers_V1.0.4/STM32F1xx_HAL_Driver/Src/stm32f1xx_hal_dma.c ****   * @param  hdma: Pointer to a DMA_HandleTypeDef structure that contains
 167:./Drivers_V1.0.4/STM32F1xx_HAL_Driver/Src/stm32f1xx_hal_dma.c ****   *               the configuration information for the specified DMA Channel.  
 168:./Drivers_V1.0.4/STM32F1xx_HAL_Driver/Src/stm32f1xx_hal_dma.c ****   * @retval HAL status
 169:./Drivers_V1.0.4/STM32F1xx_HAL_Driver/Src/stm32f1xx_hal_dma.c ****   */
 170:./Drivers_V1.0.4/STM32F1xx_HAL_Driver/Src/stm32f1xx_hal_dma.c **** HAL_StatusTypeDef HAL_DMA_Init(DMA_HandleTypeDef *hdma)
 171:./Drivers_V1.0.4/STM32F1xx_HAL_Driver/Src/stm32f1xx_hal_dma.c **** { 
 172:./Drivers_V1.0.4/STM32F1xx_HAL_Driver/Src/stm32f1xx_hal_dma.c ****   uint32_t tmp = 0;
 173:./Drivers_V1.0.4/STM32F1xx_HAL_Driver/Src/stm32f1xx_hal_dma.c ****   
 174:./Drivers_V1.0.4/STM32F1xx_HAL_Driver/Src/stm32f1xx_hal_dma.c ****   /* Check the DMA handle allocation */
 175:./Drivers_V1.0.4/STM32F1xx_HAL_Driver/Src/stm32f1xx_hal_dma.c ****   if(hdma == NULL)
 176:./Drivers_V1.0.4/STM32F1xx_HAL_Driver/Src/stm32f1xx_hal_dma.c ****   {
 177:./Drivers_V1.0.4/STM32F1xx_HAL_Driver/Src/stm32f1xx_hal_dma.c ****     return HAL_ERROR;
 178:./Drivers_V1.0.4/STM32F1xx_HAL_Driver/Src/stm32f1xx_hal_dma.c ****   }
 179:./Drivers_V1.0.4/STM32F1xx_HAL_Driver/Src/stm32f1xx_hal_dma.c ****   
 180:./Drivers_V1.0.4/STM32F1xx_HAL_Driver/Src/stm32f1xx_hal_dma.c ****   /* Check the parameters */
 181:./Drivers_V1.0.4/STM32F1xx_HAL_Driver/Src/stm32f1xx_hal_dma.c ****   assert_param(IS_DMA_ALL_INSTANCE(hdma->Instance));
 182:./Drivers_V1.0.4/STM32F1xx_HAL_Driver/Src/stm32f1xx_hal_dma.c ****   assert_param(IS_DMA_DIRECTION(hdma->Init.Direction));
 183:./Drivers_V1.0.4/STM32F1xx_HAL_Driver/Src/stm32f1xx_hal_dma.c ****   assert_param(IS_DMA_PERIPHERAL_INC_STATE(hdma->Init.PeriphInc));
 184:./Drivers_V1.0.4/STM32F1xx_HAL_Driver/Src/stm32f1xx_hal_dma.c ****   assert_param(IS_DMA_MEMORY_INC_STATE(hdma->Init.MemInc));
 185:./Drivers_V1.0.4/STM32F1xx_HAL_Driver/Src/stm32f1xx_hal_dma.c ****   assert_param(IS_DMA_PERIPHERAL_DATA_SIZE(hdma->Init.PeriphDataAlignment));
 186:./Drivers_V1.0.4/STM32F1xx_HAL_Driver/Src/stm32f1xx_hal_dma.c ****   assert_param(IS_DMA_MEMORY_DATA_SIZE(hdma->Init.MemDataAlignment));
 187:./Drivers_V1.0.4/STM32F1xx_HAL_Driver/Src/stm32f1xx_hal_dma.c ****   assert_param(IS_DMA_MODE(hdma->Init.Mode));
 188:./Drivers_V1.0.4/STM32F1xx_HAL_Driver/Src/stm32f1xx_hal_dma.c ****   assert_param(IS_DMA_PRIORITY(hdma->Init.Priority));
 189:./Drivers_V1.0.4/STM32F1xx_HAL_Driver/Src/stm32f1xx_hal_dma.c ****   
 190:./Drivers_V1.0.4/STM32F1xx_HAL_Driver/Src/stm32f1xx_hal_dma.c ****   if(hdma->State == HAL_DMA_STATE_RESET)
 191:./Drivers_V1.0.4/STM32F1xx_HAL_Driver/Src/stm32f1xx_hal_dma.c ****   {  
 192:./Drivers_V1.0.4/STM32F1xx_HAL_Driver/Src/stm32f1xx_hal_dma.c ****     /* Allocate lock resource and initialize it */
 193:./Drivers_V1.0.4/STM32F1xx_HAL_Driver/Src/stm32f1xx_hal_dma.c ****     hdma->Lock = HAL_UNLOCKED;
 194:./Drivers_V1.0.4/STM32F1xx_HAL_Driver/Src/stm32f1xx_hal_dma.c ****   }
 195:./Drivers_V1.0.4/STM32F1xx_HAL_Driver/Src/stm32f1xx_hal_dma.c ****   
 196:./Drivers_V1.0.4/STM32F1xx_HAL_Driver/Src/stm32f1xx_hal_dma.c ****   /* Change DMA peripheral state */
 197:./Drivers_V1.0.4/STM32F1xx_HAL_Driver/Src/stm32f1xx_hal_dma.c ****   hdma->State = HAL_DMA_STATE_BUSY;
 198:./Drivers_V1.0.4/STM32F1xx_HAL_Driver/Src/stm32f1xx_hal_dma.c **** 
 199:./Drivers_V1.0.4/STM32F1xx_HAL_Driver/Src/stm32f1xx_hal_dma.c ****   /* Get the CR register value */
 200:./Drivers_V1.0.4/STM32F1xx_HAL_Driver/Src/stm32f1xx_hal_dma.c ****   tmp = hdma->Instance->CCR;
 201:./Drivers_V1.0.4/STM32F1xx_HAL_Driver/Src/stm32f1xx_hal_dma.c ****   
 202:./Drivers_V1.0.4/STM32F1xx_HAL_Driver/Src/stm32f1xx_hal_dma.c ****   /* Clear PL, MSIZE, PSIZE, MINC, PINC, CIRC, DIR bits */
 203:./Drivers_V1.0.4/STM32F1xx_HAL_Driver/Src/stm32f1xx_hal_dma.c ****   tmp &= ((uint32_t)~(DMA_CCR_PL    | DMA_CCR_MSIZE  | DMA_CCR_PSIZE  | \
ARM GAS  /var/folders/jn/652hmfdj2m99syhs9p34dk640000gq/T//ccGWydQU.s 			page 5


 204:./Drivers_V1.0.4/STM32F1xx_HAL_Driver/Src/stm32f1xx_hal_dma.c ****                       DMA_CCR_MINC  | DMA_CCR_PINC   | DMA_CCR_CIRC   | \
 205:./Drivers_V1.0.4/STM32F1xx_HAL_Driver/Src/stm32f1xx_hal_dma.c ****                       DMA_CCR_DIR));
 206:./Drivers_V1.0.4/STM32F1xx_HAL_Driver/Src/stm32f1xx_hal_dma.c ****   
 207:./Drivers_V1.0.4/STM32F1xx_HAL_Driver/Src/stm32f1xx_hal_dma.c ****   /* Prepare the DMA Channel configuration */
 208:./Drivers_V1.0.4/STM32F1xx_HAL_Driver/Src/stm32f1xx_hal_dma.c ****   tmp |=  hdma->Init.Direction        |
 209:./Drivers_V1.0.4/STM32F1xx_HAL_Driver/Src/stm32f1xx_hal_dma.c ****           hdma->Init.PeriphInc           | hdma->Init.MemInc           |
 210:./Drivers_V1.0.4/STM32F1xx_HAL_Driver/Src/stm32f1xx_hal_dma.c ****           hdma->Init.PeriphDataAlignment | hdma->Init.MemDataAlignment |
 211:./Drivers_V1.0.4/STM32F1xx_HAL_Driver/Src/stm32f1xx_hal_dma.c ****           hdma->Init.Mode                | hdma->Init.Priority;
 212:./Drivers_V1.0.4/STM32F1xx_HAL_Driver/Src/stm32f1xx_hal_dma.c **** 
 213:./Drivers_V1.0.4/STM32F1xx_HAL_Driver/Src/stm32f1xx_hal_dma.c ****   /* Write to DMA Channel CR register */
 214:./Drivers_V1.0.4/STM32F1xx_HAL_Driver/Src/stm32f1xx_hal_dma.c ****   hdma->Instance->CCR = tmp;  
 215:./Drivers_V1.0.4/STM32F1xx_HAL_Driver/Src/stm32f1xx_hal_dma.c ****   
 216:./Drivers_V1.0.4/STM32F1xx_HAL_Driver/Src/stm32f1xx_hal_dma.c ****   /* Initialise the error code */
 217:./Drivers_V1.0.4/STM32F1xx_HAL_Driver/Src/stm32f1xx_hal_dma.c ****   hdma->ErrorCode = HAL_DMA_ERROR_NONE;
 218:./Drivers_V1.0.4/STM32F1xx_HAL_Driver/Src/stm32f1xx_hal_dma.c **** 
 219:./Drivers_V1.0.4/STM32F1xx_HAL_Driver/Src/stm32f1xx_hal_dma.c ****   /* Initialize the DMA state*/
 220:./Drivers_V1.0.4/STM32F1xx_HAL_Driver/Src/stm32f1xx_hal_dma.c ****   hdma->State = HAL_DMA_STATE_READY;
 221:./Drivers_V1.0.4/STM32F1xx_HAL_Driver/Src/stm32f1xx_hal_dma.c ****   
 222:./Drivers_V1.0.4/STM32F1xx_HAL_Driver/Src/stm32f1xx_hal_dma.c ****   return HAL_OK;
 223:./Drivers_V1.0.4/STM32F1xx_HAL_Driver/Src/stm32f1xx_hal_dma.c **** }
 224:./Drivers_V1.0.4/STM32F1xx_HAL_Driver/Src/stm32f1xx_hal_dma.c **** 
 225:./Drivers_V1.0.4/STM32F1xx_HAL_Driver/Src/stm32f1xx_hal_dma.c **** /**
 226:./Drivers_V1.0.4/STM32F1xx_HAL_Driver/Src/stm32f1xx_hal_dma.c ****   * @brief  DeInitializes the DMA peripheral 
 227:./Drivers_V1.0.4/STM32F1xx_HAL_Driver/Src/stm32f1xx_hal_dma.c ****   * @param  hdma: pointer to a DMA_HandleTypeDef structure that contains
 228:./Drivers_V1.0.4/STM32F1xx_HAL_Driver/Src/stm32f1xx_hal_dma.c ****   *               the configuration information for the specified DMA Channel.  
 229:./Drivers_V1.0.4/STM32F1xx_HAL_Driver/Src/stm32f1xx_hal_dma.c ****   * @retval HAL status
 230:./Drivers_V1.0.4/STM32F1xx_HAL_Driver/Src/stm32f1xx_hal_dma.c ****   */
 231:./Drivers_V1.0.4/STM32F1xx_HAL_Driver/Src/stm32f1xx_hal_dma.c **** HAL_StatusTypeDef HAL_DMA_DeInit(DMA_HandleTypeDef *hdma)
 232:./Drivers_V1.0.4/STM32F1xx_HAL_Driver/Src/stm32f1xx_hal_dma.c **** {
 233:./Drivers_V1.0.4/STM32F1xx_HAL_Driver/Src/stm32f1xx_hal_dma.c ****   /* Check the DMA handle allocation */
 234:./Drivers_V1.0.4/STM32F1xx_HAL_Driver/Src/stm32f1xx_hal_dma.c ****   if(hdma == NULL)
 235:./Drivers_V1.0.4/STM32F1xx_HAL_Driver/Src/stm32f1xx_hal_dma.c ****   {
 236:./Drivers_V1.0.4/STM32F1xx_HAL_Driver/Src/stm32f1xx_hal_dma.c ****     return HAL_ERROR;
 237:./Drivers_V1.0.4/STM32F1xx_HAL_Driver/Src/stm32f1xx_hal_dma.c ****   }
 238:./Drivers_V1.0.4/STM32F1xx_HAL_Driver/Src/stm32f1xx_hal_dma.c ****   
 239:./Drivers_V1.0.4/STM32F1xx_HAL_Driver/Src/stm32f1xx_hal_dma.c ****   /* Check the parameters */
 240:./Drivers_V1.0.4/STM32F1xx_HAL_Driver/Src/stm32f1xx_hal_dma.c ****   assert_param(IS_DMA_ALL_INSTANCE(hdma->Instance));
 241:./Drivers_V1.0.4/STM32F1xx_HAL_Driver/Src/stm32f1xx_hal_dma.c **** 
 242:./Drivers_V1.0.4/STM32F1xx_HAL_Driver/Src/stm32f1xx_hal_dma.c ****   /* Check the DMA peripheral state */
 243:./Drivers_V1.0.4/STM32F1xx_HAL_Driver/Src/stm32f1xx_hal_dma.c ****   if(hdma->State == HAL_DMA_STATE_BUSY)
 244:./Drivers_V1.0.4/STM32F1xx_HAL_Driver/Src/stm32f1xx_hal_dma.c ****   {
 245:./Drivers_V1.0.4/STM32F1xx_HAL_Driver/Src/stm32f1xx_hal_dma.c ****      return HAL_ERROR;
 246:./Drivers_V1.0.4/STM32F1xx_HAL_Driver/Src/stm32f1xx_hal_dma.c ****   }
 247:./Drivers_V1.0.4/STM32F1xx_HAL_Driver/Src/stm32f1xx_hal_dma.c **** 
 248:./Drivers_V1.0.4/STM32F1xx_HAL_Driver/Src/stm32f1xx_hal_dma.c ****   /* Disable the selected DMA Channelx */
 249:./Drivers_V1.0.4/STM32F1xx_HAL_Driver/Src/stm32f1xx_hal_dma.c ****   __HAL_DMA_DISABLE(hdma);
 250:./Drivers_V1.0.4/STM32F1xx_HAL_Driver/Src/stm32f1xx_hal_dma.c ****   
 251:./Drivers_V1.0.4/STM32F1xx_HAL_Driver/Src/stm32f1xx_hal_dma.c ****   /* Reset DMA Channel control register */
 252:./Drivers_V1.0.4/STM32F1xx_HAL_Driver/Src/stm32f1xx_hal_dma.c ****   hdma->Instance->CCR  = 0;
 253:./Drivers_V1.0.4/STM32F1xx_HAL_Driver/Src/stm32f1xx_hal_dma.c ****   
 254:./Drivers_V1.0.4/STM32F1xx_HAL_Driver/Src/stm32f1xx_hal_dma.c ****   /* Reset DMA Channel Number of Data to Transfer register */
 255:./Drivers_V1.0.4/STM32F1xx_HAL_Driver/Src/stm32f1xx_hal_dma.c ****   hdma->Instance->CNDTR = 0;
 256:./Drivers_V1.0.4/STM32F1xx_HAL_Driver/Src/stm32f1xx_hal_dma.c ****   
 257:./Drivers_V1.0.4/STM32F1xx_HAL_Driver/Src/stm32f1xx_hal_dma.c ****   /* Reset DMA Channel peripheral address register */
 258:./Drivers_V1.0.4/STM32F1xx_HAL_Driver/Src/stm32f1xx_hal_dma.c ****   hdma->Instance->CPAR  = 0;
 259:./Drivers_V1.0.4/STM32F1xx_HAL_Driver/Src/stm32f1xx_hal_dma.c ****   
 260:./Drivers_V1.0.4/STM32F1xx_HAL_Driver/Src/stm32f1xx_hal_dma.c ****   /* Reset DMA Channel memory address register */
ARM GAS  /var/folders/jn/652hmfdj2m99syhs9p34dk640000gq/T//ccGWydQU.s 			page 6


 261:./Drivers_V1.0.4/STM32F1xx_HAL_Driver/Src/stm32f1xx_hal_dma.c ****   hdma->Instance->CMAR = 0;
 262:./Drivers_V1.0.4/STM32F1xx_HAL_Driver/Src/stm32f1xx_hal_dma.c **** 
 263:./Drivers_V1.0.4/STM32F1xx_HAL_Driver/Src/stm32f1xx_hal_dma.c ****   /* Clear all flags */
 264:./Drivers_V1.0.4/STM32F1xx_HAL_Driver/Src/stm32f1xx_hal_dma.c ****   __HAL_DMA_CLEAR_FLAG(hdma, __HAL_DMA_GET_TC_FLAG_INDEX(hdma));
 265:./Drivers_V1.0.4/STM32F1xx_HAL_Driver/Src/stm32f1xx_hal_dma.c ****   __HAL_DMA_CLEAR_FLAG(hdma, __HAL_DMA_GET_TE_FLAG_INDEX(hdma));
 266:./Drivers_V1.0.4/STM32F1xx_HAL_Driver/Src/stm32f1xx_hal_dma.c ****   __HAL_DMA_CLEAR_FLAG(hdma, __HAL_DMA_GET_HT_FLAG_INDEX(hdma));
 267:./Drivers_V1.0.4/STM32F1xx_HAL_Driver/Src/stm32f1xx_hal_dma.c ****   
 268:./Drivers_V1.0.4/STM32F1xx_HAL_Driver/Src/stm32f1xx_hal_dma.c ****   /* Initialize the error code */
 269:./Drivers_V1.0.4/STM32F1xx_HAL_Driver/Src/stm32f1xx_hal_dma.c ****   hdma->ErrorCode = HAL_DMA_ERROR_NONE;
 270:./Drivers_V1.0.4/STM32F1xx_HAL_Driver/Src/stm32f1xx_hal_dma.c **** 
 271:./Drivers_V1.0.4/STM32F1xx_HAL_Driver/Src/stm32f1xx_hal_dma.c ****   /* Initialize the DMA state */
 272:./Drivers_V1.0.4/STM32F1xx_HAL_Driver/Src/stm32f1xx_hal_dma.c ****   hdma->State = HAL_DMA_STATE_RESET;
 273:./Drivers_V1.0.4/STM32F1xx_HAL_Driver/Src/stm32f1xx_hal_dma.c **** 
 274:./Drivers_V1.0.4/STM32F1xx_HAL_Driver/Src/stm32f1xx_hal_dma.c ****   /* Release Lock */
 275:./Drivers_V1.0.4/STM32F1xx_HAL_Driver/Src/stm32f1xx_hal_dma.c ****   __HAL_UNLOCK(hdma);
 276:./Drivers_V1.0.4/STM32F1xx_HAL_Driver/Src/stm32f1xx_hal_dma.c **** 
 277:./Drivers_V1.0.4/STM32F1xx_HAL_Driver/Src/stm32f1xx_hal_dma.c ****   return HAL_OK;
 278:./Drivers_V1.0.4/STM32F1xx_HAL_Driver/Src/stm32f1xx_hal_dma.c **** }
 279:./Drivers_V1.0.4/STM32F1xx_HAL_Driver/Src/stm32f1xx_hal_dma.c **** 
 280:./Drivers_V1.0.4/STM32F1xx_HAL_Driver/Src/stm32f1xx_hal_dma.c **** /**
 281:./Drivers_V1.0.4/STM32F1xx_HAL_Driver/Src/stm32f1xx_hal_dma.c ****   * @}
 282:./Drivers_V1.0.4/STM32F1xx_HAL_Driver/Src/stm32f1xx_hal_dma.c ****   */
 283:./Drivers_V1.0.4/STM32F1xx_HAL_Driver/Src/stm32f1xx_hal_dma.c **** 
 284:./Drivers_V1.0.4/STM32F1xx_HAL_Driver/Src/stm32f1xx_hal_dma.c **** /** @defgroup DMA_Exported_Functions_Group2 Input and Output operation functions 
 285:./Drivers_V1.0.4/STM32F1xx_HAL_Driver/Src/stm32f1xx_hal_dma.c ****  *  @brief   I/O operation functions  
 286:./Drivers_V1.0.4/STM32F1xx_HAL_Driver/Src/stm32f1xx_hal_dma.c ****  *
 287:./Drivers_V1.0.4/STM32F1xx_HAL_Driver/Src/stm32f1xx_hal_dma.c **** @verbatim   
 288:./Drivers_V1.0.4/STM32F1xx_HAL_Driver/Src/stm32f1xx_hal_dma.c ****  ===============================================================================
 289:./Drivers_V1.0.4/STM32F1xx_HAL_Driver/Src/stm32f1xx_hal_dma.c ****                       #####  IO operation functions  #####
 290:./Drivers_V1.0.4/STM32F1xx_HAL_Driver/Src/stm32f1xx_hal_dma.c ****  ===============================================================================  
 291:./Drivers_V1.0.4/STM32F1xx_HAL_Driver/Src/stm32f1xx_hal_dma.c ****     [..]  This section provides functions allowing to:
 292:./Drivers_V1.0.4/STM32F1xx_HAL_Driver/Src/stm32f1xx_hal_dma.c ****       (+) Configure the source, destination address and data length and Start DMA transfer
 293:./Drivers_V1.0.4/STM32F1xx_HAL_Driver/Src/stm32f1xx_hal_dma.c ****       (+) Configure the source, destination address and data length and 
 294:./Drivers_V1.0.4/STM32F1xx_HAL_Driver/Src/stm32f1xx_hal_dma.c ****           Start DMA transfer with interrupt
 295:./Drivers_V1.0.4/STM32F1xx_HAL_Driver/Src/stm32f1xx_hal_dma.c ****       (+) Abort DMA transfer
 296:./Drivers_V1.0.4/STM32F1xx_HAL_Driver/Src/stm32f1xx_hal_dma.c ****       (+) Poll for transfer complete
 297:./Drivers_V1.0.4/STM32F1xx_HAL_Driver/Src/stm32f1xx_hal_dma.c ****       (+) Handle DMA interrupt request  
 298:./Drivers_V1.0.4/STM32F1xx_HAL_Driver/Src/stm32f1xx_hal_dma.c **** 
 299:./Drivers_V1.0.4/STM32F1xx_HAL_Driver/Src/stm32f1xx_hal_dma.c **** @endverbatim
 300:./Drivers_V1.0.4/STM32F1xx_HAL_Driver/Src/stm32f1xx_hal_dma.c ****   * @{
 301:./Drivers_V1.0.4/STM32F1xx_HAL_Driver/Src/stm32f1xx_hal_dma.c ****   */
 302:./Drivers_V1.0.4/STM32F1xx_HAL_Driver/Src/stm32f1xx_hal_dma.c **** 
 303:./Drivers_V1.0.4/STM32F1xx_HAL_Driver/Src/stm32f1xx_hal_dma.c **** /**
 304:./Drivers_V1.0.4/STM32F1xx_HAL_Driver/Src/stm32f1xx_hal_dma.c ****   * @brief  Starts the DMA Transfer.
 305:./Drivers_V1.0.4/STM32F1xx_HAL_Driver/Src/stm32f1xx_hal_dma.c ****   * @param  hdma      : pointer to a DMA_HandleTypeDef structure that contains
 306:./Drivers_V1.0.4/STM32F1xx_HAL_Driver/Src/stm32f1xx_hal_dma.c ****   *                     the configuration information for the specified DMA Channel.  
 307:./Drivers_V1.0.4/STM32F1xx_HAL_Driver/Src/stm32f1xx_hal_dma.c ****   * @param  SrcAddress: The source memory Buffer address
 308:./Drivers_V1.0.4/STM32F1xx_HAL_Driver/Src/stm32f1xx_hal_dma.c ****   * @param  DstAddress: The destination memory Buffer address
 309:./Drivers_V1.0.4/STM32F1xx_HAL_Driver/Src/stm32f1xx_hal_dma.c ****   * @param  DataLength: The length of data to be transferred from source to destination
 310:./Drivers_V1.0.4/STM32F1xx_HAL_Driver/Src/stm32f1xx_hal_dma.c ****   * @retval HAL status
 311:./Drivers_V1.0.4/STM32F1xx_HAL_Driver/Src/stm32f1xx_hal_dma.c ****   */
 312:./Drivers_V1.0.4/STM32F1xx_HAL_Driver/Src/stm32f1xx_hal_dma.c **** HAL_StatusTypeDef HAL_DMA_Start(DMA_HandleTypeDef *hdma, uint32_t SrcAddress, uint32_t DstAddress, 
 313:./Drivers_V1.0.4/STM32F1xx_HAL_Driver/Src/stm32f1xx_hal_dma.c **** {
 314:./Drivers_V1.0.4/STM32F1xx_HAL_Driver/Src/stm32f1xx_hal_dma.c ****   /* Process locked */
 315:./Drivers_V1.0.4/STM32F1xx_HAL_Driver/Src/stm32f1xx_hal_dma.c ****   __HAL_LOCK(hdma);
 316:./Drivers_V1.0.4/STM32F1xx_HAL_Driver/Src/stm32f1xx_hal_dma.c **** 
 317:./Drivers_V1.0.4/STM32F1xx_HAL_Driver/Src/stm32f1xx_hal_dma.c ****   /* Change DMA peripheral state */
ARM GAS  /var/folders/jn/652hmfdj2m99syhs9p34dk640000gq/T//ccGWydQU.s 			page 7


 318:./Drivers_V1.0.4/STM32F1xx_HAL_Driver/Src/stm32f1xx_hal_dma.c ****   hdma->State = HAL_DMA_STATE_BUSY;
 319:./Drivers_V1.0.4/STM32F1xx_HAL_Driver/Src/stm32f1xx_hal_dma.c **** 
 320:./Drivers_V1.0.4/STM32F1xx_HAL_Driver/Src/stm32f1xx_hal_dma.c ****    /* Check the parameters */
 321:./Drivers_V1.0.4/STM32F1xx_HAL_Driver/Src/stm32f1xx_hal_dma.c ****   assert_param(IS_DMA_BUFFER_SIZE(DataLength));
 322:./Drivers_V1.0.4/STM32F1xx_HAL_Driver/Src/stm32f1xx_hal_dma.c ****   
 323:./Drivers_V1.0.4/STM32F1xx_HAL_Driver/Src/stm32f1xx_hal_dma.c ****   /* Disable the peripheral */
 324:./Drivers_V1.0.4/STM32F1xx_HAL_Driver/Src/stm32f1xx_hal_dma.c ****   __HAL_DMA_DISABLE(hdma);
 325:./Drivers_V1.0.4/STM32F1xx_HAL_Driver/Src/stm32f1xx_hal_dma.c ****   
 326:./Drivers_V1.0.4/STM32F1xx_HAL_Driver/Src/stm32f1xx_hal_dma.c ****   /* Configure the source, destination address and the data length */
 327:./Drivers_V1.0.4/STM32F1xx_HAL_Driver/Src/stm32f1xx_hal_dma.c ****   DMA_SetConfig(hdma, SrcAddress, DstAddress, DataLength);
 328:./Drivers_V1.0.4/STM32F1xx_HAL_Driver/Src/stm32f1xx_hal_dma.c **** 
 329:./Drivers_V1.0.4/STM32F1xx_HAL_Driver/Src/stm32f1xx_hal_dma.c ****   /* Enable the Peripheral */
 330:./Drivers_V1.0.4/STM32F1xx_HAL_Driver/Src/stm32f1xx_hal_dma.c ****   __HAL_DMA_ENABLE(hdma);
 331:./Drivers_V1.0.4/STM32F1xx_HAL_Driver/Src/stm32f1xx_hal_dma.c **** 
 332:./Drivers_V1.0.4/STM32F1xx_HAL_Driver/Src/stm32f1xx_hal_dma.c ****   return HAL_OK; 
 333:./Drivers_V1.0.4/STM32F1xx_HAL_Driver/Src/stm32f1xx_hal_dma.c **** }
 334:./Drivers_V1.0.4/STM32F1xx_HAL_Driver/Src/stm32f1xx_hal_dma.c **** 
 335:./Drivers_V1.0.4/STM32F1xx_HAL_Driver/Src/stm32f1xx_hal_dma.c **** /**
 336:./Drivers_V1.0.4/STM32F1xx_HAL_Driver/Src/stm32f1xx_hal_dma.c ****   * @brief  Start the DMA Transfer with interrupt enabled.
 337:./Drivers_V1.0.4/STM32F1xx_HAL_Driver/Src/stm32f1xx_hal_dma.c ****   * @param  hdma:       pointer to a DMA_HandleTypeDef structure that contains
 338:./Drivers_V1.0.4/STM32F1xx_HAL_Driver/Src/stm32f1xx_hal_dma.c ****   *                     the configuration information for the specified DMA Channel.  
 339:./Drivers_V1.0.4/STM32F1xx_HAL_Driver/Src/stm32f1xx_hal_dma.c ****   * @param  SrcAddress: The source memory Buffer address
 340:./Drivers_V1.0.4/STM32F1xx_HAL_Driver/Src/stm32f1xx_hal_dma.c ****   * @param  DstAddress: The destination memory Buffer address
 341:./Drivers_V1.0.4/STM32F1xx_HAL_Driver/Src/stm32f1xx_hal_dma.c ****   * @param  DataLength: The length of data to be transferred from source to destination
 342:./Drivers_V1.0.4/STM32F1xx_HAL_Driver/Src/stm32f1xx_hal_dma.c ****   * @retval HAL status
 343:./Drivers_V1.0.4/STM32F1xx_HAL_Driver/Src/stm32f1xx_hal_dma.c ****   */
 344:./Drivers_V1.0.4/STM32F1xx_HAL_Driver/Src/stm32f1xx_hal_dma.c **** HAL_StatusTypeDef HAL_DMA_Start_IT(DMA_HandleTypeDef *hdma, uint32_t SrcAddress, uint32_t DstAddres
 345:./Drivers_V1.0.4/STM32F1xx_HAL_Driver/Src/stm32f1xx_hal_dma.c **** {
 346:./Drivers_V1.0.4/STM32F1xx_HAL_Driver/Src/stm32f1xx_hal_dma.c ****   /* Process locked */
 347:./Drivers_V1.0.4/STM32F1xx_HAL_Driver/Src/stm32f1xx_hal_dma.c ****   __HAL_LOCK(hdma);
 348:./Drivers_V1.0.4/STM32F1xx_HAL_Driver/Src/stm32f1xx_hal_dma.c **** 
 349:./Drivers_V1.0.4/STM32F1xx_HAL_Driver/Src/stm32f1xx_hal_dma.c ****   /* Change DMA peripheral state */
 350:./Drivers_V1.0.4/STM32F1xx_HAL_Driver/Src/stm32f1xx_hal_dma.c ****   hdma->State = HAL_DMA_STATE_BUSY;
 351:./Drivers_V1.0.4/STM32F1xx_HAL_Driver/Src/stm32f1xx_hal_dma.c **** 
 352:./Drivers_V1.0.4/STM32F1xx_HAL_Driver/Src/stm32f1xx_hal_dma.c ****    /* Check the parameters */
 353:./Drivers_V1.0.4/STM32F1xx_HAL_Driver/Src/stm32f1xx_hal_dma.c ****   assert_param(IS_DMA_BUFFER_SIZE(DataLength));
 354:./Drivers_V1.0.4/STM32F1xx_HAL_Driver/Src/stm32f1xx_hal_dma.c ****   
 355:./Drivers_V1.0.4/STM32F1xx_HAL_Driver/Src/stm32f1xx_hal_dma.c ****   /* Disable the peripheral */
 356:./Drivers_V1.0.4/STM32F1xx_HAL_Driver/Src/stm32f1xx_hal_dma.c ****   __HAL_DMA_DISABLE(hdma);
 357:./Drivers_V1.0.4/STM32F1xx_HAL_Driver/Src/stm32f1xx_hal_dma.c ****   
 358:./Drivers_V1.0.4/STM32F1xx_HAL_Driver/Src/stm32f1xx_hal_dma.c ****   /* Configure the source, destination address and the data length */
 359:./Drivers_V1.0.4/STM32F1xx_HAL_Driver/Src/stm32f1xx_hal_dma.c ****   DMA_SetConfig(hdma, SrcAddress, DstAddress, DataLength);
 360:./Drivers_V1.0.4/STM32F1xx_HAL_Driver/Src/stm32f1xx_hal_dma.c ****   
 361:./Drivers_V1.0.4/STM32F1xx_HAL_Driver/Src/stm32f1xx_hal_dma.c ****   /* Enable the transfer complete interrupt */
 362:./Drivers_V1.0.4/STM32F1xx_HAL_Driver/Src/stm32f1xx_hal_dma.c ****   __HAL_DMA_ENABLE_IT(hdma, DMA_IT_TC);
 363:./Drivers_V1.0.4/STM32F1xx_HAL_Driver/Src/stm32f1xx_hal_dma.c **** 
 364:./Drivers_V1.0.4/STM32F1xx_HAL_Driver/Src/stm32f1xx_hal_dma.c ****   /* Enable the Half transfer complete interrupt */
 365:./Drivers_V1.0.4/STM32F1xx_HAL_Driver/Src/stm32f1xx_hal_dma.c ****   __HAL_DMA_ENABLE_IT(hdma, DMA_IT_HT);  
 366:./Drivers_V1.0.4/STM32F1xx_HAL_Driver/Src/stm32f1xx_hal_dma.c **** 
 367:./Drivers_V1.0.4/STM32F1xx_HAL_Driver/Src/stm32f1xx_hal_dma.c ****   /* Enable the transfer Error interrupt */
 368:./Drivers_V1.0.4/STM32F1xx_HAL_Driver/Src/stm32f1xx_hal_dma.c ****   __HAL_DMA_ENABLE_IT(hdma, DMA_IT_TE);
 369:./Drivers_V1.0.4/STM32F1xx_HAL_Driver/Src/stm32f1xx_hal_dma.c ****   
 370:./Drivers_V1.0.4/STM32F1xx_HAL_Driver/Src/stm32f1xx_hal_dma.c ****    /* Enable the Peripheral */
 371:./Drivers_V1.0.4/STM32F1xx_HAL_Driver/Src/stm32f1xx_hal_dma.c ****   __HAL_DMA_ENABLE(hdma);
 372:./Drivers_V1.0.4/STM32F1xx_HAL_Driver/Src/stm32f1xx_hal_dma.c ****   
 373:./Drivers_V1.0.4/STM32F1xx_HAL_Driver/Src/stm32f1xx_hal_dma.c ****   return HAL_OK;
 374:./Drivers_V1.0.4/STM32F1xx_HAL_Driver/Src/stm32f1xx_hal_dma.c **** } 
ARM GAS  /var/folders/jn/652hmfdj2m99syhs9p34dk640000gq/T//ccGWydQU.s 			page 8


 375:./Drivers_V1.0.4/STM32F1xx_HAL_Driver/Src/stm32f1xx_hal_dma.c **** 
 376:./Drivers_V1.0.4/STM32F1xx_HAL_Driver/Src/stm32f1xx_hal_dma.c **** /**
 377:./Drivers_V1.0.4/STM32F1xx_HAL_Driver/Src/stm32f1xx_hal_dma.c ****   * @brief  Aborts the DMA Transfer.
 378:./Drivers_V1.0.4/STM32F1xx_HAL_Driver/Src/stm32f1xx_hal_dma.c ****   * @param  hdma  : pointer to a DMA_HandleTypeDef structure that contains
 379:./Drivers_V1.0.4/STM32F1xx_HAL_Driver/Src/stm32f1xx_hal_dma.c ****   *                 the configuration information for the specified DMA Channel.
 380:./Drivers_V1.0.4/STM32F1xx_HAL_Driver/Src/stm32f1xx_hal_dma.c ****   *                   
 381:./Drivers_V1.0.4/STM32F1xx_HAL_Driver/Src/stm32f1xx_hal_dma.c ****   * @note  After disabling a DMA Channel, a check for wait until the DMA Channel is 
 382:./Drivers_V1.0.4/STM32F1xx_HAL_Driver/Src/stm32f1xx_hal_dma.c ****   *        effectively disabled is added. If a Channel is disabled 
 383:./Drivers_V1.0.4/STM32F1xx_HAL_Driver/Src/stm32f1xx_hal_dma.c ****   *        while a data transfer is ongoing, the current data will be transferred
 384:./Drivers_V1.0.4/STM32F1xx_HAL_Driver/Src/stm32f1xx_hal_dma.c ****   *        and the Channel will be effectively disabled only after the transfer of
 385:./Drivers_V1.0.4/STM32F1xx_HAL_Driver/Src/stm32f1xx_hal_dma.c ****   *        this single data is finished.  
 386:./Drivers_V1.0.4/STM32F1xx_HAL_Driver/Src/stm32f1xx_hal_dma.c ****   * @retval HAL status
 387:./Drivers_V1.0.4/STM32F1xx_HAL_Driver/Src/stm32f1xx_hal_dma.c ****   */
 388:./Drivers_V1.0.4/STM32F1xx_HAL_Driver/Src/stm32f1xx_hal_dma.c **** HAL_StatusTypeDef HAL_DMA_Abort(DMA_HandleTypeDef *hdma)
 389:./Drivers_V1.0.4/STM32F1xx_HAL_Driver/Src/stm32f1xx_hal_dma.c **** {
 390:./Drivers_V1.0.4/STM32F1xx_HAL_Driver/Src/stm32f1xx_hal_dma.c ****   uint32_t tickstart = 0x00;
 391:./Drivers_V1.0.4/STM32F1xx_HAL_Driver/Src/stm32f1xx_hal_dma.c ****   
 392:./Drivers_V1.0.4/STM32F1xx_HAL_Driver/Src/stm32f1xx_hal_dma.c ****   /* Disable the channel */
 393:./Drivers_V1.0.4/STM32F1xx_HAL_Driver/Src/stm32f1xx_hal_dma.c ****   __HAL_DMA_DISABLE(hdma);
 394:./Drivers_V1.0.4/STM32F1xx_HAL_Driver/Src/stm32f1xx_hal_dma.c **** 
 395:./Drivers_V1.0.4/STM32F1xx_HAL_Driver/Src/stm32f1xx_hal_dma.c ****   /* Get tick */
 396:./Drivers_V1.0.4/STM32F1xx_HAL_Driver/Src/stm32f1xx_hal_dma.c ****   tickstart = HAL_GetTick();
 397:./Drivers_V1.0.4/STM32F1xx_HAL_Driver/Src/stm32f1xx_hal_dma.c ****   
 398:./Drivers_V1.0.4/STM32F1xx_HAL_Driver/Src/stm32f1xx_hal_dma.c ****   /* Check if the DMA Channel is effectively disabled */
 399:./Drivers_V1.0.4/STM32F1xx_HAL_Driver/Src/stm32f1xx_hal_dma.c ****   while((hdma->Instance->CCR & DMA_CCR_EN) != 0)
 400:./Drivers_V1.0.4/STM32F1xx_HAL_Driver/Src/stm32f1xx_hal_dma.c ****   {
 401:./Drivers_V1.0.4/STM32F1xx_HAL_Driver/Src/stm32f1xx_hal_dma.c ****     /* Check for the Timeout */
 402:./Drivers_V1.0.4/STM32F1xx_HAL_Driver/Src/stm32f1xx_hal_dma.c ****     if((HAL_GetTick() - tickstart) > HAL_TIMEOUT_DMA_ABORT)
 403:./Drivers_V1.0.4/STM32F1xx_HAL_Driver/Src/stm32f1xx_hal_dma.c ****     {
 404:./Drivers_V1.0.4/STM32F1xx_HAL_Driver/Src/stm32f1xx_hal_dma.c ****       /* Update error code */
 405:./Drivers_V1.0.4/STM32F1xx_HAL_Driver/Src/stm32f1xx_hal_dma.c ****       SET_BIT(hdma->ErrorCode, HAL_DMA_ERROR_TIMEOUT);
 406:./Drivers_V1.0.4/STM32F1xx_HAL_Driver/Src/stm32f1xx_hal_dma.c **** 
 407:./Drivers_V1.0.4/STM32F1xx_HAL_Driver/Src/stm32f1xx_hal_dma.c ****       /* Change the DMA state */
 408:./Drivers_V1.0.4/STM32F1xx_HAL_Driver/Src/stm32f1xx_hal_dma.c ****       hdma->State = HAL_DMA_STATE_TIMEOUT;
 409:./Drivers_V1.0.4/STM32F1xx_HAL_Driver/Src/stm32f1xx_hal_dma.c **** 
 410:./Drivers_V1.0.4/STM32F1xx_HAL_Driver/Src/stm32f1xx_hal_dma.c ****       /* Process Unlocked */
 411:./Drivers_V1.0.4/STM32F1xx_HAL_Driver/Src/stm32f1xx_hal_dma.c ****       __HAL_UNLOCK(hdma);
 412:./Drivers_V1.0.4/STM32F1xx_HAL_Driver/Src/stm32f1xx_hal_dma.c **** 
 413:./Drivers_V1.0.4/STM32F1xx_HAL_Driver/Src/stm32f1xx_hal_dma.c ****       return HAL_TIMEOUT;
 414:./Drivers_V1.0.4/STM32F1xx_HAL_Driver/Src/stm32f1xx_hal_dma.c ****     }
 415:./Drivers_V1.0.4/STM32F1xx_HAL_Driver/Src/stm32f1xx_hal_dma.c ****   }
 416:./Drivers_V1.0.4/STM32F1xx_HAL_Driver/Src/stm32f1xx_hal_dma.c ****   /* Change the DMA state */
 417:./Drivers_V1.0.4/STM32F1xx_HAL_Driver/Src/stm32f1xx_hal_dma.c ****   hdma->State = HAL_DMA_STATE_READY;
 418:./Drivers_V1.0.4/STM32F1xx_HAL_Driver/Src/stm32f1xx_hal_dma.c ****   
 419:./Drivers_V1.0.4/STM32F1xx_HAL_Driver/Src/stm32f1xx_hal_dma.c ****   /* Process Unlocked */
 420:./Drivers_V1.0.4/STM32F1xx_HAL_Driver/Src/stm32f1xx_hal_dma.c ****   __HAL_UNLOCK(hdma);
 421:./Drivers_V1.0.4/STM32F1xx_HAL_Driver/Src/stm32f1xx_hal_dma.c ****   
 422:./Drivers_V1.0.4/STM32F1xx_HAL_Driver/Src/stm32f1xx_hal_dma.c ****   return HAL_OK;
 423:./Drivers_V1.0.4/STM32F1xx_HAL_Driver/Src/stm32f1xx_hal_dma.c **** }
 424:./Drivers_V1.0.4/STM32F1xx_HAL_Driver/Src/stm32f1xx_hal_dma.c **** 
 425:./Drivers_V1.0.4/STM32F1xx_HAL_Driver/Src/stm32f1xx_hal_dma.c **** /**
 426:./Drivers_V1.0.4/STM32F1xx_HAL_Driver/Src/stm32f1xx_hal_dma.c ****   * @brief  Polling for transfer complete.
 427:./Drivers_V1.0.4/STM32F1xx_HAL_Driver/Src/stm32f1xx_hal_dma.c ****   * @param  hdma:    pointer to a DMA_HandleTypeDef structure that contains
 428:./Drivers_V1.0.4/STM32F1xx_HAL_Driver/Src/stm32f1xx_hal_dma.c ****   *                  the configuration information for the specified DMA Channel.
 429:./Drivers_V1.0.4/STM32F1xx_HAL_Driver/Src/stm32f1xx_hal_dma.c ****   * @param  CompleteLevel: Specifies the DMA level complete.  
 430:./Drivers_V1.0.4/STM32F1xx_HAL_Driver/Src/stm32f1xx_hal_dma.c ****   * @param  Timeout:       Timeout duration.
 431:./Drivers_V1.0.4/STM32F1xx_HAL_Driver/Src/stm32f1xx_hal_dma.c ****   * @retval HAL status
ARM GAS  /var/folders/jn/652hmfdj2m99syhs9p34dk640000gq/T//ccGWydQU.s 			page 9


 432:./Drivers_V1.0.4/STM32F1xx_HAL_Driver/Src/stm32f1xx_hal_dma.c ****   */
 433:./Drivers_V1.0.4/STM32F1xx_HAL_Driver/Src/stm32f1xx_hal_dma.c **** HAL_StatusTypeDef HAL_DMA_PollForTransfer(DMA_HandleTypeDef *hdma, uint32_t CompleteLevel, uint32_t
 434:./Drivers_V1.0.4/STM32F1xx_HAL_Driver/Src/stm32f1xx_hal_dma.c **** {
 435:./Drivers_V1.0.4/STM32F1xx_HAL_Driver/Src/stm32f1xx_hal_dma.c ****   uint32_t temp;
 436:./Drivers_V1.0.4/STM32F1xx_HAL_Driver/Src/stm32f1xx_hal_dma.c ****   uint32_t tickstart = 0x00;
 437:./Drivers_V1.0.4/STM32F1xx_HAL_Driver/Src/stm32f1xx_hal_dma.c ****   
 438:./Drivers_V1.0.4/STM32F1xx_HAL_Driver/Src/stm32f1xx_hal_dma.c ****   /* Get the level transfer complete flag */
 439:./Drivers_V1.0.4/STM32F1xx_HAL_Driver/Src/stm32f1xx_hal_dma.c ****   if(CompleteLevel == HAL_DMA_FULL_TRANSFER)
 440:./Drivers_V1.0.4/STM32F1xx_HAL_Driver/Src/stm32f1xx_hal_dma.c ****   {
 441:./Drivers_V1.0.4/STM32F1xx_HAL_Driver/Src/stm32f1xx_hal_dma.c ****     /* Transfer Complete flag */
 442:./Drivers_V1.0.4/STM32F1xx_HAL_Driver/Src/stm32f1xx_hal_dma.c ****     temp = __HAL_DMA_GET_TC_FLAG_INDEX(hdma);
 443:./Drivers_V1.0.4/STM32F1xx_HAL_Driver/Src/stm32f1xx_hal_dma.c ****   }
 444:./Drivers_V1.0.4/STM32F1xx_HAL_Driver/Src/stm32f1xx_hal_dma.c ****   else
 445:./Drivers_V1.0.4/STM32F1xx_HAL_Driver/Src/stm32f1xx_hal_dma.c ****   {
 446:./Drivers_V1.0.4/STM32F1xx_HAL_Driver/Src/stm32f1xx_hal_dma.c ****     /* Half Transfer Complete flag */
 447:./Drivers_V1.0.4/STM32F1xx_HAL_Driver/Src/stm32f1xx_hal_dma.c ****     temp = __HAL_DMA_GET_HT_FLAG_INDEX(hdma);
 448:./Drivers_V1.0.4/STM32F1xx_HAL_Driver/Src/stm32f1xx_hal_dma.c ****   }
 449:./Drivers_V1.0.4/STM32F1xx_HAL_Driver/Src/stm32f1xx_hal_dma.c **** 
 450:./Drivers_V1.0.4/STM32F1xx_HAL_Driver/Src/stm32f1xx_hal_dma.c ****   /* Get tick */
 451:./Drivers_V1.0.4/STM32F1xx_HAL_Driver/Src/stm32f1xx_hal_dma.c ****   tickstart = HAL_GetTick();
 452:./Drivers_V1.0.4/STM32F1xx_HAL_Driver/Src/stm32f1xx_hal_dma.c **** 
 453:./Drivers_V1.0.4/STM32F1xx_HAL_Driver/Src/stm32f1xx_hal_dma.c ****   while(__HAL_DMA_GET_FLAG(hdma, temp) == RESET)
 454:./Drivers_V1.0.4/STM32F1xx_HAL_Driver/Src/stm32f1xx_hal_dma.c ****   {
 455:./Drivers_V1.0.4/STM32F1xx_HAL_Driver/Src/stm32f1xx_hal_dma.c ****     if((__HAL_DMA_GET_FLAG(hdma, __HAL_DMA_GET_TE_FLAG_INDEX(hdma)) != RESET))
 456:./Drivers_V1.0.4/STM32F1xx_HAL_Driver/Src/stm32f1xx_hal_dma.c ****     {      
 457:./Drivers_V1.0.4/STM32F1xx_HAL_Driver/Src/stm32f1xx_hal_dma.c ****       /* Clear the transfer error flags */
 458:./Drivers_V1.0.4/STM32F1xx_HAL_Driver/Src/stm32f1xx_hal_dma.c ****       __HAL_DMA_CLEAR_FLAG(hdma, __HAL_DMA_GET_TE_FLAG_INDEX(hdma));
 459:./Drivers_V1.0.4/STM32F1xx_HAL_Driver/Src/stm32f1xx_hal_dma.c ****       
 460:./Drivers_V1.0.4/STM32F1xx_HAL_Driver/Src/stm32f1xx_hal_dma.c ****       /* Update error code */
 461:./Drivers_V1.0.4/STM32F1xx_HAL_Driver/Src/stm32f1xx_hal_dma.c ****       SET_BIT(hdma->ErrorCode, HAL_DMA_ERROR_TE);
 462:./Drivers_V1.0.4/STM32F1xx_HAL_Driver/Src/stm32f1xx_hal_dma.c **** 
 463:./Drivers_V1.0.4/STM32F1xx_HAL_Driver/Src/stm32f1xx_hal_dma.c ****       /* Change the DMA state */
 464:./Drivers_V1.0.4/STM32F1xx_HAL_Driver/Src/stm32f1xx_hal_dma.c ****       hdma->State= HAL_DMA_STATE_ERROR;
 465:./Drivers_V1.0.4/STM32F1xx_HAL_Driver/Src/stm32f1xx_hal_dma.c ****       
 466:./Drivers_V1.0.4/STM32F1xx_HAL_Driver/Src/stm32f1xx_hal_dma.c ****       /* Process Unlocked */
 467:./Drivers_V1.0.4/STM32F1xx_HAL_Driver/Src/stm32f1xx_hal_dma.c ****       __HAL_UNLOCK(hdma);
 468:./Drivers_V1.0.4/STM32F1xx_HAL_Driver/Src/stm32f1xx_hal_dma.c ****       
 469:./Drivers_V1.0.4/STM32F1xx_HAL_Driver/Src/stm32f1xx_hal_dma.c ****       return HAL_ERROR;
 470:./Drivers_V1.0.4/STM32F1xx_HAL_Driver/Src/stm32f1xx_hal_dma.c ****     }
 471:./Drivers_V1.0.4/STM32F1xx_HAL_Driver/Src/stm32f1xx_hal_dma.c ****     /* Check for the Timeout */
 472:./Drivers_V1.0.4/STM32F1xx_HAL_Driver/Src/stm32f1xx_hal_dma.c ****     if(Timeout != HAL_MAX_DELAY)
 473:./Drivers_V1.0.4/STM32F1xx_HAL_Driver/Src/stm32f1xx_hal_dma.c ****     {
 474:./Drivers_V1.0.4/STM32F1xx_HAL_Driver/Src/stm32f1xx_hal_dma.c ****       if((Timeout == 0) || ((HAL_GetTick() - tickstart) > Timeout))
 475:./Drivers_V1.0.4/STM32F1xx_HAL_Driver/Src/stm32f1xx_hal_dma.c ****       {
 476:./Drivers_V1.0.4/STM32F1xx_HAL_Driver/Src/stm32f1xx_hal_dma.c ****         /* Update error code */
 477:./Drivers_V1.0.4/STM32F1xx_HAL_Driver/Src/stm32f1xx_hal_dma.c ****         SET_BIT(hdma->ErrorCode, HAL_DMA_ERROR_TIMEOUT);
 478:./Drivers_V1.0.4/STM32F1xx_HAL_Driver/Src/stm32f1xx_hal_dma.c ****         
 479:./Drivers_V1.0.4/STM32F1xx_HAL_Driver/Src/stm32f1xx_hal_dma.c ****         /* Change the DMA state */
 480:./Drivers_V1.0.4/STM32F1xx_HAL_Driver/Src/stm32f1xx_hal_dma.c ****         hdma->State = HAL_DMA_STATE_TIMEOUT;
 481:./Drivers_V1.0.4/STM32F1xx_HAL_Driver/Src/stm32f1xx_hal_dma.c **** 
 482:./Drivers_V1.0.4/STM32F1xx_HAL_Driver/Src/stm32f1xx_hal_dma.c ****         /* Process Unlocked */
 483:./Drivers_V1.0.4/STM32F1xx_HAL_Driver/Src/stm32f1xx_hal_dma.c ****         __HAL_UNLOCK(hdma);
 484:./Drivers_V1.0.4/STM32F1xx_HAL_Driver/Src/stm32f1xx_hal_dma.c ****         
 485:./Drivers_V1.0.4/STM32F1xx_HAL_Driver/Src/stm32f1xx_hal_dma.c ****         return HAL_TIMEOUT;
 486:./Drivers_V1.0.4/STM32F1xx_HAL_Driver/Src/stm32f1xx_hal_dma.c ****       }
 487:./Drivers_V1.0.4/STM32F1xx_HAL_Driver/Src/stm32f1xx_hal_dma.c ****     }
 488:./Drivers_V1.0.4/STM32F1xx_HAL_Driver/Src/stm32f1xx_hal_dma.c ****   }
ARM GAS  /var/folders/jn/652hmfdj2m99syhs9p34dk640000gq/T//ccGWydQU.s 			page 10


 489:./Drivers_V1.0.4/STM32F1xx_HAL_Driver/Src/stm32f1xx_hal_dma.c **** 
 490:./Drivers_V1.0.4/STM32F1xx_HAL_Driver/Src/stm32f1xx_hal_dma.c ****   if(CompleteLevel == HAL_DMA_FULL_TRANSFER)
 491:./Drivers_V1.0.4/STM32F1xx_HAL_Driver/Src/stm32f1xx_hal_dma.c ****   {
 492:./Drivers_V1.0.4/STM32F1xx_HAL_Driver/Src/stm32f1xx_hal_dma.c ****     /* Clear the transfer complete flag */
 493:./Drivers_V1.0.4/STM32F1xx_HAL_Driver/Src/stm32f1xx_hal_dma.c ****     __HAL_DMA_CLEAR_FLAG(hdma, __HAL_DMA_GET_TC_FLAG_INDEX(hdma));
 494:./Drivers_V1.0.4/STM32F1xx_HAL_Driver/Src/stm32f1xx_hal_dma.c **** 
 495:./Drivers_V1.0.4/STM32F1xx_HAL_Driver/Src/stm32f1xx_hal_dma.c ****     /* The selected Channelx EN bit is cleared (DMA is disabled and 
 496:./Drivers_V1.0.4/STM32F1xx_HAL_Driver/Src/stm32f1xx_hal_dma.c ****     all transfers are complete) */
 497:./Drivers_V1.0.4/STM32F1xx_HAL_Driver/Src/stm32f1xx_hal_dma.c ****     hdma->State = HAL_DMA_STATE_READY;
 498:./Drivers_V1.0.4/STM32F1xx_HAL_Driver/Src/stm32f1xx_hal_dma.c **** 
 499:./Drivers_V1.0.4/STM32F1xx_HAL_Driver/Src/stm32f1xx_hal_dma.c ****   }
 500:./Drivers_V1.0.4/STM32F1xx_HAL_Driver/Src/stm32f1xx_hal_dma.c ****   else
 501:./Drivers_V1.0.4/STM32F1xx_HAL_Driver/Src/stm32f1xx_hal_dma.c ****   { 
 502:./Drivers_V1.0.4/STM32F1xx_HAL_Driver/Src/stm32f1xx_hal_dma.c ****     /* Clear the half transfer complete flag */
 503:./Drivers_V1.0.4/STM32F1xx_HAL_Driver/Src/stm32f1xx_hal_dma.c ****     __HAL_DMA_CLEAR_FLAG(hdma, __HAL_DMA_GET_HT_FLAG_INDEX(hdma));
 504:./Drivers_V1.0.4/STM32F1xx_HAL_Driver/Src/stm32f1xx_hal_dma.c ****   
 505:./Drivers_V1.0.4/STM32F1xx_HAL_Driver/Src/stm32f1xx_hal_dma.c ****     /* The selected Channelx EN bit is cleared (DMA is disabled and 
 506:./Drivers_V1.0.4/STM32F1xx_HAL_Driver/Src/stm32f1xx_hal_dma.c ****     all transfers of half buffer are complete) */
 507:./Drivers_V1.0.4/STM32F1xx_HAL_Driver/Src/stm32f1xx_hal_dma.c ****     hdma->State = HAL_DMA_STATE_READY_HALF;
 508:./Drivers_V1.0.4/STM32F1xx_HAL_Driver/Src/stm32f1xx_hal_dma.c ****   }
 509:./Drivers_V1.0.4/STM32F1xx_HAL_Driver/Src/stm32f1xx_hal_dma.c ****   
 510:./Drivers_V1.0.4/STM32F1xx_HAL_Driver/Src/stm32f1xx_hal_dma.c ****   /* Process unlocked */
 511:./Drivers_V1.0.4/STM32F1xx_HAL_Driver/Src/stm32f1xx_hal_dma.c ****   __HAL_UNLOCK(hdma);
 512:./Drivers_V1.0.4/STM32F1xx_HAL_Driver/Src/stm32f1xx_hal_dma.c **** 
 513:./Drivers_V1.0.4/STM32F1xx_HAL_Driver/Src/stm32f1xx_hal_dma.c ****   return HAL_OK;
 514:./Drivers_V1.0.4/STM32F1xx_HAL_Driver/Src/stm32f1xx_hal_dma.c **** }
 515:./Drivers_V1.0.4/STM32F1xx_HAL_Driver/Src/stm32f1xx_hal_dma.c **** 
 516:./Drivers_V1.0.4/STM32F1xx_HAL_Driver/Src/stm32f1xx_hal_dma.c **** /**
 517:./Drivers_V1.0.4/STM32F1xx_HAL_Driver/Src/stm32f1xx_hal_dma.c ****   * @brief  Handles DMA interrupt request.
 518:./Drivers_V1.0.4/STM32F1xx_HAL_Driver/Src/stm32f1xx_hal_dma.c ****   * @param  hdma: pointer to a DMA_HandleTypeDef structure that contains
 519:./Drivers_V1.0.4/STM32F1xx_HAL_Driver/Src/stm32f1xx_hal_dma.c ****   *               the configuration information for the specified DMA Channel.  
 520:./Drivers_V1.0.4/STM32F1xx_HAL_Driver/Src/stm32f1xx_hal_dma.c ****   * @retval None
 521:./Drivers_V1.0.4/STM32F1xx_HAL_Driver/Src/stm32f1xx_hal_dma.c ****   */
 522:./Drivers_V1.0.4/STM32F1xx_HAL_Driver/Src/stm32f1xx_hal_dma.c **** void HAL_DMA_IRQHandler(DMA_HandleTypeDef *hdma)
 523:./Drivers_V1.0.4/STM32F1xx_HAL_Driver/Src/stm32f1xx_hal_dma.c **** {
 524:./Drivers_V1.0.4/STM32F1xx_HAL_Driver/Src/stm32f1xx_hal_dma.c ****   /* Transfer Error Interrupt management ***************************************/
 525:./Drivers_V1.0.4/STM32F1xx_HAL_Driver/Src/stm32f1xx_hal_dma.c ****   if(__HAL_DMA_GET_FLAG(hdma, __HAL_DMA_GET_TE_FLAG_INDEX(hdma)) != RESET)
 526:./Drivers_V1.0.4/STM32F1xx_HAL_Driver/Src/stm32f1xx_hal_dma.c ****   {
 527:./Drivers_V1.0.4/STM32F1xx_HAL_Driver/Src/stm32f1xx_hal_dma.c ****     if(__HAL_DMA_GET_IT_SOURCE(hdma, DMA_IT_TE) != RESET)
 528:./Drivers_V1.0.4/STM32F1xx_HAL_Driver/Src/stm32f1xx_hal_dma.c ****     {
 529:./Drivers_V1.0.4/STM32F1xx_HAL_Driver/Src/stm32f1xx_hal_dma.c ****       /* Disable the transfer error interrupt */
 530:./Drivers_V1.0.4/STM32F1xx_HAL_Driver/Src/stm32f1xx_hal_dma.c ****       __HAL_DMA_DISABLE_IT(hdma, DMA_IT_TE);
 531:./Drivers_V1.0.4/STM32F1xx_HAL_Driver/Src/stm32f1xx_hal_dma.c ****       
 532:./Drivers_V1.0.4/STM32F1xx_HAL_Driver/Src/stm32f1xx_hal_dma.c ****       /* Clear the transfer error flag */
 533:./Drivers_V1.0.4/STM32F1xx_HAL_Driver/Src/stm32f1xx_hal_dma.c ****       __HAL_DMA_CLEAR_FLAG(hdma, __HAL_DMA_GET_TE_FLAG_INDEX(hdma));
 534:./Drivers_V1.0.4/STM32F1xx_HAL_Driver/Src/stm32f1xx_hal_dma.c ****       
 535:./Drivers_V1.0.4/STM32F1xx_HAL_Driver/Src/stm32f1xx_hal_dma.c ****       /* Update error code */
 536:./Drivers_V1.0.4/STM32F1xx_HAL_Driver/Src/stm32f1xx_hal_dma.c ****       SET_BIT(hdma->ErrorCode, HAL_DMA_ERROR_TE);
 537:./Drivers_V1.0.4/STM32F1xx_HAL_Driver/Src/stm32f1xx_hal_dma.c ****       
 538:./Drivers_V1.0.4/STM32F1xx_HAL_Driver/Src/stm32f1xx_hal_dma.c ****       /* Change the DMA state */
 539:./Drivers_V1.0.4/STM32F1xx_HAL_Driver/Src/stm32f1xx_hal_dma.c ****       hdma->State = HAL_DMA_STATE_ERROR;
 540:./Drivers_V1.0.4/STM32F1xx_HAL_Driver/Src/stm32f1xx_hal_dma.c ****       
 541:./Drivers_V1.0.4/STM32F1xx_HAL_Driver/Src/stm32f1xx_hal_dma.c ****       /* Process Unlocked */
 542:./Drivers_V1.0.4/STM32F1xx_HAL_Driver/Src/stm32f1xx_hal_dma.c ****       __HAL_UNLOCK(hdma); 
 543:./Drivers_V1.0.4/STM32F1xx_HAL_Driver/Src/stm32f1xx_hal_dma.c ****       
 544:./Drivers_V1.0.4/STM32F1xx_HAL_Driver/Src/stm32f1xx_hal_dma.c ****       if (hdma->XferErrorCallback != NULL)
 545:./Drivers_V1.0.4/STM32F1xx_HAL_Driver/Src/stm32f1xx_hal_dma.c ****       {
ARM GAS  /var/folders/jn/652hmfdj2m99syhs9p34dk640000gq/T//ccGWydQU.s 			page 11


 546:./Drivers_V1.0.4/STM32F1xx_HAL_Driver/Src/stm32f1xx_hal_dma.c ****         /* Transfer error callback */
 547:./Drivers_V1.0.4/STM32F1xx_HAL_Driver/Src/stm32f1xx_hal_dma.c ****         hdma->XferErrorCallback(hdma);
 548:./Drivers_V1.0.4/STM32F1xx_HAL_Driver/Src/stm32f1xx_hal_dma.c ****       }
 549:./Drivers_V1.0.4/STM32F1xx_HAL_Driver/Src/stm32f1xx_hal_dma.c ****     }
 550:./Drivers_V1.0.4/STM32F1xx_HAL_Driver/Src/stm32f1xx_hal_dma.c ****   }
 551:./Drivers_V1.0.4/STM32F1xx_HAL_Driver/Src/stm32f1xx_hal_dma.c **** 
 552:./Drivers_V1.0.4/STM32F1xx_HAL_Driver/Src/stm32f1xx_hal_dma.c ****   /* Half Transfer Complete Interrupt management ******************************/
 553:./Drivers_V1.0.4/STM32F1xx_HAL_Driver/Src/stm32f1xx_hal_dma.c ****   if(__HAL_DMA_GET_FLAG(hdma, __HAL_DMA_GET_HT_FLAG_INDEX(hdma)) != RESET)
 554:./Drivers_V1.0.4/STM32F1xx_HAL_Driver/Src/stm32f1xx_hal_dma.c ****   {
 555:./Drivers_V1.0.4/STM32F1xx_HAL_Driver/Src/stm32f1xx_hal_dma.c ****     if(__HAL_DMA_GET_IT_SOURCE(hdma, DMA_IT_HT) != RESET)
 556:./Drivers_V1.0.4/STM32F1xx_HAL_Driver/Src/stm32f1xx_hal_dma.c ****     { 
 557:./Drivers_V1.0.4/STM32F1xx_HAL_Driver/Src/stm32f1xx_hal_dma.c ****       /* Disable the half transfer interrupt if the DMA mode is not CIRCULAR */
 558:./Drivers_V1.0.4/STM32F1xx_HAL_Driver/Src/stm32f1xx_hal_dma.c ****       if((hdma->Instance->CCR & DMA_CCR_CIRC) == 0)
 559:./Drivers_V1.0.4/STM32F1xx_HAL_Driver/Src/stm32f1xx_hal_dma.c ****       {
 560:./Drivers_V1.0.4/STM32F1xx_HAL_Driver/Src/stm32f1xx_hal_dma.c ****         /* Disable the half transfer interrupt */
 561:./Drivers_V1.0.4/STM32F1xx_HAL_Driver/Src/stm32f1xx_hal_dma.c ****         __HAL_DMA_DISABLE_IT(hdma, DMA_IT_HT);
 562:./Drivers_V1.0.4/STM32F1xx_HAL_Driver/Src/stm32f1xx_hal_dma.c ****       }
 563:./Drivers_V1.0.4/STM32F1xx_HAL_Driver/Src/stm32f1xx_hal_dma.c ****       /* Clear the half transfer complete flag */
 564:./Drivers_V1.0.4/STM32F1xx_HAL_Driver/Src/stm32f1xx_hal_dma.c ****       __HAL_DMA_CLEAR_FLAG(hdma, __HAL_DMA_GET_HT_FLAG_INDEX(hdma));
 565:./Drivers_V1.0.4/STM32F1xx_HAL_Driver/Src/stm32f1xx_hal_dma.c **** 
 566:./Drivers_V1.0.4/STM32F1xx_HAL_Driver/Src/stm32f1xx_hal_dma.c ****       /* Change DMA peripheral state */
 567:./Drivers_V1.0.4/STM32F1xx_HAL_Driver/Src/stm32f1xx_hal_dma.c ****       hdma->State = HAL_DMA_STATE_READY_HALF;
 568:./Drivers_V1.0.4/STM32F1xx_HAL_Driver/Src/stm32f1xx_hal_dma.c **** 
 569:./Drivers_V1.0.4/STM32F1xx_HAL_Driver/Src/stm32f1xx_hal_dma.c ****       if(hdma->XferHalfCpltCallback != NULL)
 570:./Drivers_V1.0.4/STM32F1xx_HAL_Driver/Src/stm32f1xx_hal_dma.c ****       {
 571:./Drivers_V1.0.4/STM32F1xx_HAL_Driver/Src/stm32f1xx_hal_dma.c ****         /* Half transfer callback */
 572:./Drivers_V1.0.4/STM32F1xx_HAL_Driver/Src/stm32f1xx_hal_dma.c ****         hdma->XferHalfCpltCallback(hdma);
 573:./Drivers_V1.0.4/STM32F1xx_HAL_Driver/Src/stm32f1xx_hal_dma.c ****       }
 574:./Drivers_V1.0.4/STM32F1xx_HAL_Driver/Src/stm32f1xx_hal_dma.c ****     }
 575:./Drivers_V1.0.4/STM32F1xx_HAL_Driver/Src/stm32f1xx_hal_dma.c ****   }
 576:./Drivers_V1.0.4/STM32F1xx_HAL_Driver/Src/stm32f1xx_hal_dma.c ****   
 577:./Drivers_V1.0.4/STM32F1xx_HAL_Driver/Src/stm32f1xx_hal_dma.c ****   /* Transfer Complete Interrupt management ***********************************/
 578:./Drivers_V1.0.4/STM32F1xx_HAL_Driver/Src/stm32f1xx_hal_dma.c ****   if(__HAL_DMA_GET_FLAG(hdma, __HAL_DMA_GET_TC_FLAG_INDEX(hdma)) != RESET)
 579:./Drivers_V1.0.4/STM32F1xx_HAL_Driver/Src/stm32f1xx_hal_dma.c ****   {
 580:./Drivers_V1.0.4/STM32F1xx_HAL_Driver/Src/stm32f1xx_hal_dma.c ****     if(__HAL_DMA_GET_IT_SOURCE(hdma, DMA_IT_TC) != RESET)
 581:./Drivers_V1.0.4/STM32F1xx_HAL_Driver/Src/stm32f1xx_hal_dma.c ****     {
 582:./Drivers_V1.0.4/STM32F1xx_HAL_Driver/Src/stm32f1xx_hal_dma.c ****       if((hdma->Instance->CCR & DMA_CCR_CIRC) == 0)
 583:./Drivers_V1.0.4/STM32F1xx_HAL_Driver/Src/stm32f1xx_hal_dma.c ****       {
 584:./Drivers_V1.0.4/STM32F1xx_HAL_Driver/Src/stm32f1xx_hal_dma.c ****         /* Disable the transfer complete interrupt */
 585:./Drivers_V1.0.4/STM32F1xx_HAL_Driver/Src/stm32f1xx_hal_dma.c ****         __HAL_DMA_DISABLE_IT(hdma, DMA_IT_TC);
 586:./Drivers_V1.0.4/STM32F1xx_HAL_Driver/Src/stm32f1xx_hal_dma.c ****       }
 587:./Drivers_V1.0.4/STM32F1xx_HAL_Driver/Src/stm32f1xx_hal_dma.c ****       /* Clear the transfer complete flag */
 588:./Drivers_V1.0.4/STM32F1xx_HAL_Driver/Src/stm32f1xx_hal_dma.c ****       __HAL_DMA_CLEAR_FLAG(hdma, __HAL_DMA_GET_TC_FLAG_INDEX(hdma));
 589:./Drivers_V1.0.4/STM32F1xx_HAL_Driver/Src/stm32f1xx_hal_dma.c ****     
 590:./Drivers_V1.0.4/STM32F1xx_HAL_Driver/Src/stm32f1xx_hal_dma.c ****       /* Update error code */
 591:./Drivers_V1.0.4/STM32F1xx_HAL_Driver/Src/stm32f1xx_hal_dma.c ****       SET_BIT(hdma->ErrorCode, HAL_DMA_ERROR_NONE);
 592:./Drivers_V1.0.4/STM32F1xx_HAL_Driver/Src/stm32f1xx_hal_dma.c **** 
 593:./Drivers_V1.0.4/STM32F1xx_HAL_Driver/Src/stm32f1xx_hal_dma.c ****       /* Change the DMA state */
 594:./Drivers_V1.0.4/STM32F1xx_HAL_Driver/Src/stm32f1xx_hal_dma.c ****       hdma->State = HAL_DMA_STATE_READY;
 595:./Drivers_V1.0.4/STM32F1xx_HAL_Driver/Src/stm32f1xx_hal_dma.c ****     
 596:./Drivers_V1.0.4/STM32F1xx_HAL_Driver/Src/stm32f1xx_hal_dma.c ****       /* Process Unlocked */
 597:./Drivers_V1.0.4/STM32F1xx_HAL_Driver/Src/stm32f1xx_hal_dma.c ****       __HAL_UNLOCK(hdma);
 598:./Drivers_V1.0.4/STM32F1xx_HAL_Driver/Src/stm32f1xx_hal_dma.c ****     
 599:./Drivers_V1.0.4/STM32F1xx_HAL_Driver/Src/stm32f1xx_hal_dma.c ****       if(hdma->XferCpltCallback != NULL)
 600:./Drivers_V1.0.4/STM32F1xx_HAL_Driver/Src/stm32f1xx_hal_dma.c ****       {       
 601:./Drivers_V1.0.4/STM32F1xx_HAL_Driver/Src/stm32f1xx_hal_dma.c ****         /* Transfer complete callback */
 602:./Drivers_V1.0.4/STM32F1xx_HAL_Driver/Src/stm32f1xx_hal_dma.c ****         hdma->XferCpltCallback(hdma);
ARM GAS  /var/folders/jn/652hmfdj2m99syhs9p34dk640000gq/T//ccGWydQU.s 			page 12


 603:./Drivers_V1.0.4/STM32F1xx_HAL_Driver/Src/stm32f1xx_hal_dma.c ****       }
 604:./Drivers_V1.0.4/STM32F1xx_HAL_Driver/Src/stm32f1xx_hal_dma.c ****     }
 605:./Drivers_V1.0.4/STM32F1xx_HAL_Driver/Src/stm32f1xx_hal_dma.c ****   }
 606:./Drivers_V1.0.4/STM32F1xx_HAL_Driver/Src/stm32f1xx_hal_dma.c **** }
 607:./Drivers_V1.0.4/STM32F1xx_HAL_Driver/Src/stm32f1xx_hal_dma.c **** 
 608:./Drivers_V1.0.4/STM32F1xx_HAL_Driver/Src/stm32f1xx_hal_dma.c **** /**
 609:./Drivers_V1.0.4/STM32F1xx_HAL_Driver/Src/stm32f1xx_hal_dma.c ****   * @}
 610:./Drivers_V1.0.4/STM32F1xx_HAL_Driver/Src/stm32f1xx_hal_dma.c ****   */
 611:./Drivers_V1.0.4/STM32F1xx_HAL_Driver/Src/stm32f1xx_hal_dma.c **** 
 612:./Drivers_V1.0.4/STM32F1xx_HAL_Driver/Src/stm32f1xx_hal_dma.c **** /** @defgroup DMA_Exported_Functions_Group3 Peripheral State functions
 613:./Drivers_V1.0.4/STM32F1xx_HAL_Driver/Src/stm32f1xx_hal_dma.c ****  *  @brief    Peripheral State functions 
 614:./Drivers_V1.0.4/STM32F1xx_HAL_Driver/Src/stm32f1xx_hal_dma.c ****  *
 615:./Drivers_V1.0.4/STM32F1xx_HAL_Driver/Src/stm32f1xx_hal_dma.c **** @verbatim   
 616:./Drivers_V1.0.4/STM32F1xx_HAL_Driver/Src/stm32f1xx_hal_dma.c ****  ===============================================================================
 617:./Drivers_V1.0.4/STM32F1xx_HAL_Driver/Src/stm32f1xx_hal_dma.c ****                     ##### State and Errors functions #####
 618:./Drivers_V1.0.4/STM32F1xx_HAL_Driver/Src/stm32f1xx_hal_dma.c ****  ===============================================================================
 619:./Drivers_V1.0.4/STM32F1xx_HAL_Driver/Src/stm32f1xx_hal_dma.c ****     [..]
 620:./Drivers_V1.0.4/STM32F1xx_HAL_Driver/Src/stm32f1xx_hal_dma.c ****     This subsection provides functions allowing to
 621:./Drivers_V1.0.4/STM32F1xx_HAL_Driver/Src/stm32f1xx_hal_dma.c ****       (+) Check the DMA state
 622:./Drivers_V1.0.4/STM32F1xx_HAL_Driver/Src/stm32f1xx_hal_dma.c ****       (+) Get error code
 623:./Drivers_V1.0.4/STM32F1xx_HAL_Driver/Src/stm32f1xx_hal_dma.c **** 
 624:./Drivers_V1.0.4/STM32F1xx_HAL_Driver/Src/stm32f1xx_hal_dma.c **** @endverbatim
 625:./Drivers_V1.0.4/STM32F1xx_HAL_Driver/Src/stm32f1xx_hal_dma.c ****   * @{
 626:./Drivers_V1.0.4/STM32F1xx_HAL_Driver/Src/stm32f1xx_hal_dma.c ****   */
 627:./Drivers_V1.0.4/STM32F1xx_HAL_Driver/Src/stm32f1xx_hal_dma.c **** 
 628:./Drivers_V1.0.4/STM32F1xx_HAL_Driver/Src/stm32f1xx_hal_dma.c **** /**
 629:./Drivers_V1.0.4/STM32F1xx_HAL_Driver/Src/stm32f1xx_hal_dma.c ****   * @brief  Returns the DMA state.
 630:./Drivers_V1.0.4/STM32F1xx_HAL_Driver/Src/stm32f1xx_hal_dma.c ****   * @param  hdma: pointer to a DMA_HandleTypeDef structure that contains
 631:./Drivers_V1.0.4/STM32F1xx_HAL_Driver/Src/stm32f1xx_hal_dma.c ****   *               the configuration information for the specified DMA Channel.  
 632:./Drivers_V1.0.4/STM32F1xx_HAL_Driver/Src/stm32f1xx_hal_dma.c ****   * @retval HAL state
 633:./Drivers_V1.0.4/STM32F1xx_HAL_Driver/Src/stm32f1xx_hal_dma.c ****   */
 634:./Drivers_V1.0.4/STM32F1xx_HAL_Driver/Src/stm32f1xx_hal_dma.c **** HAL_DMA_StateTypeDef HAL_DMA_GetState(DMA_HandleTypeDef *hdma)
 635:./Drivers_V1.0.4/STM32F1xx_HAL_Driver/Src/stm32f1xx_hal_dma.c **** {
 636:./Drivers_V1.0.4/STM32F1xx_HAL_Driver/Src/stm32f1xx_hal_dma.c ****   return hdma->State;
 637:./Drivers_V1.0.4/STM32F1xx_HAL_Driver/Src/stm32f1xx_hal_dma.c **** }
 638:./Drivers_V1.0.4/STM32F1xx_HAL_Driver/Src/stm32f1xx_hal_dma.c **** 
 639:./Drivers_V1.0.4/STM32F1xx_HAL_Driver/Src/stm32f1xx_hal_dma.c **** /**
 640:./Drivers_V1.0.4/STM32F1xx_HAL_Driver/Src/stm32f1xx_hal_dma.c ****   * @brief  Return the DMA error code
 641:./Drivers_V1.0.4/STM32F1xx_HAL_Driver/Src/stm32f1xx_hal_dma.c ****   * @param  hdma : pointer to a DMA_HandleTypeDef structure that contains
 642:./Drivers_V1.0.4/STM32F1xx_HAL_Driver/Src/stm32f1xx_hal_dma.c ****   *              the configuration information for the specified DMA Channel.
 643:./Drivers_V1.0.4/STM32F1xx_HAL_Driver/Src/stm32f1xx_hal_dma.c ****   * @retval DMA Error Code
 644:./Drivers_V1.0.4/STM32F1xx_HAL_Driver/Src/stm32f1xx_hal_dma.c ****   */
 645:./Drivers_V1.0.4/STM32F1xx_HAL_Driver/Src/stm32f1xx_hal_dma.c **** uint32_t HAL_DMA_GetError(DMA_HandleTypeDef *hdma)
 646:./Drivers_V1.0.4/STM32F1xx_HAL_Driver/Src/stm32f1xx_hal_dma.c **** {
 647:./Drivers_V1.0.4/STM32F1xx_HAL_Driver/Src/stm32f1xx_hal_dma.c ****   return hdma->ErrorCode;
 648:./Drivers_V1.0.4/STM32F1xx_HAL_Driver/Src/stm32f1xx_hal_dma.c **** }
 649:./Drivers_V1.0.4/STM32F1xx_HAL_Driver/Src/stm32f1xx_hal_dma.c **** 
 650:./Drivers_V1.0.4/STM32F1xx_HAL_Driver/Src/stm32f1xx_hal_dma.c **** /**
 651:./Drivers_V1.0.4/STM32F1xx_HAL_Driver/Src/stm32f1xx_hal_dma.c ****   * @}
 652:./Drivers_V1.0.4/STM32F1xx_HAL_Driver/Src/stm32f1xx_hal_dma.c ****   */
 653:./Drivers_V1.0.4/STM32F1xx_HAL_Driver/Src/stm32f1xx_hal_dma.c **** 
 654:./Drivers_V1.0.4/STM32F1xx_HAL_Driver/Src/stm32f1xx_hal_dma.c **** /**
 655:./Drivers_V1.0.4/STM32F1xx_HAL_Driver/Src/stm32f1xx_hal_dma.c ****   * @}
 656:./Drivers_V1.0.4/STM32F1xx_HAL_Driver/Src/stm32f1xx_hal_dma.c ****   */
 657:./Drivers_V1.0.4/STM32F1xx_HAL_Driver/Src/stm32f1xx_hal_dma.c **** 
 658:./Drivers_V1.0.4/STM32F1xx_HAL_Driver/Src/stm32f1xx_hal_dma.c **** /** @addtogroup DMA_Private_Functions DMA Private Functions
 659:./Drivers_V1.0.4/STM32F1xx_HAL_Driver/Src/stm32f1xx_hal_dma.c ****   * @{
ARM GAS  /var/folders/jn/652hmfdj2m99syhs9p34dk640000gq/T//ccGWydQU.s 			page 13


 660:./Drivers_V1.0.4/STM32F1xx_HAL_Driver/Src/stm32f1xx_hal_dma.c ****   */
 661:./Drivers_V1.0.4/STM32F1xx_HAL_Driver/Src/stm32f1xx_hal_dma.c **** 
 662:./Drivers_V1.0.4/STM32F1xx_HAL_Driver/Src/stm32f1xx_hal_dma.c **** /**
 663:./Drivers_V1.0.4/STM32F1xx_HAL_Driver/Src/stm32f1xx_hal_dma.c ****   * @brief  Sets the DMA Transfer parameter.
 664:./Drivers_V1.0.4/STM32F1xx_HAL_Driver/Src/stm32f1xx_hal_dma.c ****   * @param  hdma:       pointer to a DMA_HandleTypeDef structure that contains
 665:./Drivers_V1.0.4/STM32F1xx_HAL_Driver/Src/stm32f1xx_hal_dma.c ****   *                     the configuration information for the specified DMA Channel.  
 666:./Drivers_V1.0.4/STM32F1xx_HAL_Driver/Src/stm32f1xx_hal_dma.c ****   * @param  SrcAddress: The source memory Buffer address
 667:./Drivers_V1.0.4/STM32F1xx_HAL_Driver/Src/stm32f1xx_hal_dma.c ****   * @param  DstAddress: The destination memory Buffer address
 668:./Drivers_V1.0.4/STM32F1xx_HAL_Driver/Src/stm32f1xx_hal_dma.c ****   * @param  DataLength: The length of data to be transferred from source to destination
 669:./Drivers_V1.0.4/STM32F1xx_HAL_Driver/Src/stm32f1xx_hal_dma.c ****   * @retval HAL status
 670:./Drivers_V1.0.4/STM32F1xx_HAL_Driver/Src/stm32f1xx_hal_dma.c ****   */
 671:./Drivers_V1.0.4/STM32F1xx_HAL_Driver/Src/stm32f1xx_hal_dma.c **** static void DMA_SetConfig(DMA_HandleTypeDef *hdma, uint32_t SrcAddress, uint32_t DstAddress, uint32
 672:./Drivers_V1.0.4/STM32F1xx_HAL_Driver/Src/stm32f1xx_hal_dma.c **** {
  27              		.loc 1 672 0
  28              		.cfi_startproc
  29              		@ args = 0, pretend = 0, frame = 0
  30              		@ frame_needed = 0, uses_anonymous_args = 0
  31              		@ link register save eliminated.
  32              	.LVL0:
  33 0000 10B4     		push	{r4}
  34              	.LCFI0:
  35              		.cfi_def_cfa_offset 4
  36              		.cfi_offset 4, -4
 673:./Drivers_V1.0.4/STM32F1xx_HAL_Driver/Src/stm32f1xx_hal_dma.c ****   /* Configure DMA Channel data length */
 674:./Drivers_V1.0.4/STM32F1xx_HAL_Driver/Src/stm32f1xx_hal_dma.c ****   hdma->Instance->CNDTR = DataLength;
  37              		.loc 1 674 0
  38 0002 0468     		ldr	r4, [r0]
  39 0004 6360     		str	r3, [r4, #4]
 675:./Drivers_V1.0.4/STM32F1xx_HAL_Driver/Src/stm32f1xx_hal_dma.c ****   
 676:./Drivers_V1.0.4/STM32F1xx_HAL_Driver/Src/stm32f1xx_hal_dma.c ****   /* Peripheral to Memory */
 677:./Drivers_V1.0.4/STM32F1xx_HAL_Driver/Src/stm32f1xx_hal_dma.c ****   if((hdma->Init.Direction) == DMA_MEMORY_TO_PERIPH)
  40              		.loc 1 677 0
  41 0006 4368     		ldr	r3, [r0, #4]
  42              	.LVL1:
  43 0008 102B     		cmp	r3, #16
  44 000a 04D1     		bne	.L2
 678:./Drivers_V1.0.4/STM32F1xx_HAL_Driver/Src/stm32f1xx_hal_dma.c ****   {
 679:./Drivers_V1.0.4/STM32F1xx_HAL_Driver/Src/stm32f1xx_hal_dma.c ****     /* Configure DMA Channel destination address */
 680:./Drivers_V1.0.4/STM32F1xx_HAL_Driver/Src/stm32f1xx_hal_dma.c ****     hdma->Instance->CPAR = DstAddress;
  45              		.loc 1 680 0
  46 000c 0368     		ldr	r3, [r0]
  47 000e 9A60     		str	r2, [r3, #8]
  48              	.LVL2:
 681:./Drivers_V1.0.4/STM32F1xx_HAL_Driver/Src/stm32f1xx_hal_dma.c ****     
 682:./Drivers_V1.0.4/STM32F1xx_HAL_Driver/Src/stm32f1xx_hal_dma.c ****     /* Configure DMA Channel source address */
 683:./Drivers_V1.0.4/STM32F1xx_HAL_Driver/Src/stm32f1xx_hal_dma.c ****     hdma->Instance->CMAR = SrcAddress;
  49              		.loc 1 683 0
  50 0010 0368     		ldr	r3, [r0]
  51 0012 D960     		str	r1, [r3, #12]
  52 0014 03E0     		b	.L1
  53              	.LVL3:
  54              	.L2:
 684:./Drivers_V1.0.4/STM32F1xx_HAL_Driver/Src/stm32f1xx_hal_dma.c ****   }
 685:./Drivers_V1.0.4/STM32F1xx_HAL_Driver/Src/stm32f1xx_hal_dma.c ****   /* Memory to Peripheral */
 686:./Drivers_V1.0.4/STM32F1xx_HAL_Driver/Src/stm32f1xx_hal_dma.c ****   else
 687:./Drivers_V1.0.4/STM32F1xx_HAL_Driver/Src/stm32f1xx_hal_dma.c ****   {
 688:./Drivers_V1.0.4/STM32F1xx_HAL_Driver/Src/stm32f1xx_hal_dma.c ****     /* Configure DMA Channel source address */
ARM GAS  /var/folders/jn/652hmfdj2m99syhs9p34dk640000gq/T//ccGWydQU.s 			page 14


 689:./Drivers_V1.0.4/STM32F1xx_HAL_Driver/Src/stm32f1xx_hal_dma.c ****     hdma->Instance->CPAR = SrcAddress;
  55              		.loc 1 689 0
  56 0016 0368     		ldr	r3, [r0]
  57 0018 9960     		str	r1, [r3, #8]
  58              	.LVL4:
 690:./Drivers_V1.0.4/STM32F1xx_HAL_Driver/Src/stm32f1xx_hal_dma.c ****     
 691:./Drivers_V1.0.4/STM32F1xx_HAL_Driver/Src/stm32f1xx_hal_dma.c ****     /* Configure DMA Channel destination address */
 692:./Drivers_V1.0.4/STM32F1xx_HAL_Driver/Src/stm32f1xx_hal_dma.c ****     hdma->Instance->CMAR = DstAddress;
  59              		.loc 1 692 0
  60 001a 0368     		ldr	r3, [r0]
  61 001c DA60     		str	r2, [r3, #12]
  62              	.L1:
 693:./Drivers_V1.0.4/STM32F1xx_HAL_Driver/Src/stm32f1xx_hal_dma.c ****   }
 694:./Drivers_V1.0.4/STM32F1xx_HAL_Driver/Src/stm32f1xx_hal_dma.c **** }
  63              		.loc 1 694 0
  64 001e 10BC     		pop	{r4}
  65              	.LCFI1:
  66              		.cfi_restore 4
  67              		.cfi_def_cfa_offset 0
  68 0020 7047     		bx	lr
  69              		.cfi_endproc
  70              	.LFE73:
  72 0022 00BF     		.section	.text.HAL_DMA_Init,"ax",%progbits
  73              		.align	2
  74              		.global	HAL_DMA_Init
  75              		.thumb
  76              		.thumb_func
  78              	HAL_DMA_Init:
  79              	.LFB64:
 171:./Drivers_V1.0.4/STM32F1xx_HAL_Driver/Src/stm32f1xx_hal_dma.c ****   uint32_t tmp = 0;
  80              		.loc 1 171 0
  81              		.cfi_startproc
  82              		@ args = 0, pretend = 0, frame = 0
  83              		@ frame_needed = 0, uses_anonymous_args = 0
  84              		@ link register save eliminated.
  85              	.LVL5:
 175:./Drivers_V1.0.4/STM32F1xx_HAL_Driver/Src/stm32f1xx_hal_dma.c ****   {
  86              		.loc 1 175 0
  87 0000 20B3     		cbz	r0, .L8
 171:./Drivers_V1.0.4/STM32F1xx_HAL_Driver/Src/stm32f1xx_hal_dma.c ****   uint32_t tmp = 0;
  88              		.loc 1 171 0
  89 0002 10B4     		push	{r4}
  90              	.LCFI2:
  91              		.cfi_def_cfa_offset 4
  92              		.cfi_offset 4, -4
  93 0004 0346     		mov	r3, r0
 190:./Drivers_V1.0.4/STM32F1xx_HAL_Driver/Src/stm32f1xx_hal_dma.c ****   {  
  94              		.loc 1 190 0
  95 0006 90F82120 		ldrb	r2, [r0, #33]	@ zero_extendqisi2
  96 000a 0AB9     		cbnz	r2, .L7
 193:./Drivers_V1.0.4/STM32F1xx_HAL_Driver/Src/stm32f1xx_hal_dma.c ****   }
  97              		.loc 1 193 0
  98 000c 80F82020 		strb	r2, [r0, #32]
  99              	.L7:
 197:./Drivers_V1.0.4/STM32F1xx_HAL_Driver/Src/stm32f1xx_hal_dma.c **** 
 100              		.loc 1 197 0
 101 0010 0222     		movs	r2, #2
ARM GAS  /var/folders/jn/652hmfdj2m99syhs9p34dk640000gq/T//ccGWydQU.s 			page 15


 102 0012 83F82120 		strb	r2, [r3, #33]
 200:./Drivers_V1.0.4/STM32F1xx_HAL_Driver/Src/stm32f1xx_hal_dma.c ****   
 103              		.loc 1 200 0
 104 0016 1C68     		ldr	r4, [r3]
 105 0018 2268     		ldr	r2, [r4]
 106              	.LVL6:
 203:./Drivers_V1.0.4/STM32F1xx_HAL_Driver/Src/stm32f1xx_hal_dma.c ****                       DMA_CCR_MINC  | DMA_CCR_PINC   | DMA_CCR_CIRC   | \
 107              		.loc 1 203 0
 108 001a 22F47F51 		bic	r1, r2, #16320
 109 001e 21F03001 		bic	r1, r1, #48
 110              	.LVL7:
 208:./Drivers_V1.0.4/STM32F1xx_HAL_Driver/Src/stm32f1xx_hal_dma.c ****           hdma->Init.PeriphInc           | hdma->Init.MemInc           |
 111              		.loc 1 208 0
 112 0022 5868     		ldr	r0, [r3, #4]
 113              	.LVL8:
 209:./Drivers_V1.0.4/STM32F1xx_HAL_Driver/Src/stm32f1xx_hal_dma.c ****           hdma->Init.PeriphDataAlignment | hdma->Init.MemDataAlignment |
 114              		.loc 1 209 0
 115 0024 9A68     		ldr	r2, [r3, #8]
 208:./Drivers_V1.0.4/STM32F1xx_HAL_Driver/Src/stm32f1xx_hal_dma.c ****           hdma->Init.PeriphInc           | hdma->Init.MemInc           |
 116              		.loc 1 208 0
 117 0026 1043     		orrs	r0, r0, r2
 209:./Drivers_V1.0.4/STM32F1xx_HAL_Driver/Src/stm32f1xx_hal_dma.c ****           hdma->Init.PeriphDataAlignment | hdma->Init.MemDataAlignment |
 118              		.loc 1 209 0
 119 0028 DA68     		ldr	r2, [r3, #12]
 120 002a 1043     		orrs	r0, r0, r2
 210:./Drivers_V1.0.4/STM32F1xx_HAL_Driver/Src/stm32f1xx_hal_dma.c ****           hdma->Init.Mode                | hdma->Init.Priority;
 121              		.loc 1 210 0
 122 002c 1A69     		ldr	r2, [r3, #16]
 209:./Drivers_V1.0.4/STM32F1xx_HAL_Driver/Src/stm32f1xx_hal_dma.c ****           hdma->Init.PeriphDataAlignment | hdma->Init.MemDataAlignment |
 123              		.loc 1 209 0
 124 002e 1043     		orrs	r0, r0, r2
 210:./Drivers_V1.0.4/STM32F1xx_HAL_Driver/Src/stm32f1xx_hal_dma.c ****           hdma->Init.Mode                | hdma->Init.Priority;
 125              		.loc 1 210 0
 126 0030 5A69     		ldr	r2, [r3, #20]
 127 0032 1043     		orrs	r0, r0, r2
 211:./Drivers_V1.0.4/STM32F1xx_HAL_Driver/Src/stm32f1xx_hal_dma.c **** 
 128              		.loc 1 211 0
 129 0034 9A69     		ldr	r2, [r3, #24]
 210:./Drivers_V1.0.4/STM32F1xx_HAL_Driver/Src/stm32f1xx_hal_dma.c ****           hdma->Init.Mode                | hdma->Init.Priority;
 130              		.loc 1 210 0
 131 0036 1043     		orrs	r0, r0, r2
 211:./Drivers_V1.0.4/STM32F1xx_HAL_Driver/Src/stm32f1xx_hal_dma.c **** 
 132              		.loc 1 211 0
 133 0038 DA69     		ldr	r2, [r3, #28]
 134 003a 0243     		orrs	r2, r2, r0
 208:./Drivers_V1.0.4/STM32F1xx_HAL_Driver/Src/stm32f1xx_hal_dma.c ****           hdma->Init.PeriphInc           | hdma->Init.MemInc           |
 135              		.loc 1 208 0
 136 003c 0A43     		orrs	r2, r2, r1
 137              	.LVL9:
 214:./Drivers_V1.0.4/STM32F1xx_HAL_Driver/Src/stm32f1xx_hal_dma.c ****   
 138              		.loc 1 214 0
 139 003e 2260     		str	r2, [r4]
 217:./Drivers_V1.0.4/STM32F1xx_HAL_Driver/Src/stm32f1xx_hal_dma.c **** 
 140              		.loc 1 217 0
 141 0040 0020     		movs	r0, #0
 142 0042 5863     		str	r0, [r3, #52]
 220:./Drivers_V1.0.4/STM32F1xx_HAL_Driver/Src/stm32f1xx_hal_dma.c ****   
ARM GAS  /var/folders/jn/652hmfdj2m99syhs9p34dk640000gq/T//ccGWydQU.s 			page 16


 143              		.loc 1 220 0
 144 0044 0122     		movs	r2, #1
 145              	.LVL10:
 146 0046 83F82120 		strb	r2, [r3, #33]
 222:./Drivers_V1.0.4/STM32F1xx_HAL_Driver/Src/stm32f1xx_hal_dma.c **** }
 147              		.loc 1 222 0
 148 004a 01E0     		b	.L6
 149              	.LVL11:
 150              	.L8:
 151              	.LCFI3:
 152              		.cfi_def_cfa_offset 0
 153              		.cfi_restore 4
 177:./Drivers_V1.0.4/STM32F1xx_HAL_Driver/Src/stm32f1xx_hal_dma.c ****   }
 154              		.loc 1 177 0
 155 004c 0120     		movs	r0, #1
 156              	.LVL12:
 157 004e 7047     		bx	lr
 158              	.LVL13:
 159              	.L6:
 160              	.LCFI4:
 161              		.cfi_def_cfa_offset 4
 162              		.cfi_offset 4, -4
 223:./Drivers_V1.0.4/STM32F1xx_HAL_Driver/Src/stm32f1xx_hal_dma.c **** 
 163              		.loc 1 223 0
 164 0050 10BC     		pop	{r4}
 165              	.LCFI5:
 166              		.cfi_restore 4
 167              		.cfi_def_cfa_offset 0
 168 0052 7047     		bx	lr
 169              		.cfi_endproc
 170              	.LFE64:
 172              		.section	.text.HAL_DMA_DeInit,"ax",%progbits
 173              		.align	2
 174              		.global	HAL_DMA_DeInit
 175              		.thumb
 176              		.thumb_func
 178              	HAL_DMA_DeInit:
 179              	.LFB65:
 232:./Drivers_V1.0.4/STM32F1xx_HAL_Driver/Src/stm32f1xx_hal_dma.c ****   /* Check the DMA handle allocation */
 180              		.loc 1 232 0
 181              		.cfi_startproc
 182              		@ args = 0, pretend = 0, frame = 0
 183              		@ frame_needed = 0, uses_anonymous_args = 0
 184              		@ link register save eliminated.
 185              	.LVL14:
 234:./Drivers_V1.0.4/STM32F1xx_HAL_Driver/Src/stm32f1xx_hal_dma.c ****   {
 186              		.loc 1 234 0
 187 0000 0346     		mov	r3, r0
 188 0002 0028     		cmp	r0, #0
 189 0004 00F08F80 		beq	.L16
 243:./Drivers_V1.0.4/STM32F1xx_HAL_Driver/Src/stm32f1xx_hal_dma.c ****   {
 190              		.loc 1 243 0
 191 0008 90F82120 		ldrb	r2, [r0, #33]	@ zero_extendqisi2
 192 000c 022A     		cmp	r2, #2
 193 000e 00F08C80 		beq	.L17
 249:./Drivers_V1.0.4/STM32F1xx_HAL_Driver/Src/stm32f1xx_hal_dma.c ****   
 194              		.loc 1 249 0
ARM GAS  /var/folders/jn/652hmfdj2m99syhs9p34dk640000gq/T//ccGWydQU.s 			page 17


 195 0012 0168     		ldr	r1, [r0]
 196 0014 0A68     		ldr	r2, [r1]
 197 0016 22F00102 		bic	r2, r2, #1
 198 001a 0A60     		str	r2, [r1]
 252:./Drivers_V1.0.4/STM32F1xx_HAL_Driver/Src/stm32f1xx_hal_dma.c ****   
 199              		.loc 1 252 0
 200 001c 0168     		ldr	r1, [r0]
 201 001e 0022     		movs	r2, #0
 202 0020 0A60     		str	r2, [r1]
 255:./Drivers_V1.0.4/STM32F1xx_HAL_Driver/Src/stm32f1xx_hal_dma.c ****   
 203              		.loc 1 255 0
 204 0022 0168     		ldr	r1, [r0]
 205 0024 4A60     		str	r2, [r1, #4]
 258:./Drivers_V1.0.4/STM32F1xx_HAL_Driver/Src/stm32f1xx_hal_dma.c ****   
 206              		.loc 1 258 0
 207 0026 0168     		ldr	r1, [r0]
 208 0028 8A60     		str	r2, [r1, #8]
 261:./Drivers_V1.0.4/STM32F1xx_HAL_Driver/Src/stm32f1xx_hal_dma.c **** 
 209              		.loc 1 261 0
 210 002a 0168     		ldr	r1, [r0]
 211 002c CA60     		str	r2, [r1, #12]
 264:./Drivers_V1.0.4/STM32F1xx_HAL_Driver/Src/stm32f1xx_hal_dma.c ****   __HAL_DMA_CLEAR_FLAG(hdma, __HAL_DMA_GET_TE_FLAG_INDEX(hdma));
 212              		.loc 1 264 0
 213 002e 0268     		ldr	r2, [r0]
 214 0030 3F49     		ldr	r1, .L36
 215 0032 8A42     		cmp	r2, r1
 216 0034 11D0     		beq	.L18
 264:./Drivers_V1.0.4/STM32F1xx_HAL_Driver/Src/stm32f1xx_hal_dma.c ****   __HAL_DMA_CLEAR_FLAG(hdma, __HAL_DMA_GET_TE_FLAG_INDEX(hdma));
 217              		.loc 1 264 0 is_stmt 0 discriminator 1
 218 0036 1431     		adds	r1, r1, #20
 219 0038 8A42     		cmp	r2, r1
 220 003a 10D0     		beq	.L19
 264:./Drivers_V1.0.4/STM32F1xx_HAL_Driver/Src/stm32f1xx_hal_dma.c ****   __HAL_DMA_CLEAR_FLAG(hdma, __HAL_DMA_GET_TE_FLAG_INDEX(hdma));
 221              		.loc 1 264 0 discriminator 3
 222 003c 1431     		adds	r1, r1, #20
 223 003e 8A42     		cmp	r2, r1
 224 0040 0FD0     		beq	.L20
 264:./Drivers_V1.0.4/STM32F1xx_HAL_Driver/Src/stm32f1xx_hal_dma.c ****   __HAL_DMA_CLEAR_FLAG(hdma, __HAL_DMA_GET_TE_FLAG_INDEX(hdma));
 225              		.loc 1 264 0 discriminator 5
 226 0042 1431     		adds	r1, r1, #20
 227 0044 8A42     		cmp	r2, r1
 228 0046 0FD0     		beq	.L21
 264:./Drivers_V1.0.4/STM32F1xx_HAL_Driver/Src/stm32f1xx_hal_dma.c ****   __HAL_DMA_CLEAR_FLAG(hdma, __HAL_DMA_GET_TE_FLAG_INDEX(hdma));
 229              		.loc 1 264 0 discriminator 7
 230 0048 1431     		adds	r1, r1, #20
 231 004a 8A42     		cmp	r2, r1
 232 004c 0FD0     		beq	.L22
 264:./Drivers_V1.0.4/STM32F1xx_HAL_Driver/Src/stm32f1xx_hal_dma.c ****   __HAL_DMA_CLEAR_FLAG(hdma, __HAL_DMA_GET_TE_FLAG_INDEX(hdma));
 233              		.loc 1 264 0 discriminator 9
 234 004e 1431     		adds	r1, r1, #20
 235 0050 8A42     		cmp	r2, r1
 236 0052 0FD1     		bne	.L23
 264:./Drivers_V1.0.4/STM32F1xx_HAL_Driver/Src/stm32f1xx_hal_dma.c ****   __HAL_DMA_CLEAR_FLAG(hdma, __HAL_DMA_GET_TE_FLAG_INDEX(hdma));
 237              		.loc 1 264 0
 238 0054 4FF40011 		mov	r1, #2097152
 239 0058 0EE0     		b	.L13
 240              	.L18:
ARM GAS  /var/folders/jn/652hmfdj2m99syhs9p34dk640000gq/T//ccGWydQU.s 			page 18


 241 005a 0221     		movs	r1, #2
 242 005c 0CE0     		b	.L13
 243              	.L19:
 244 005e 2021     		movs	r1, #32
 245 0060 0AE0     		b	.L13
 246              	.L20:
 247 0062 4FF40071 		mov	r1, #512
 248 0066 07E0     		b	.L13
 249              	.L21:
 250 0068 4FF40051 		mov	r1, #8192
 251 006c 04E0     		b	.L13
 252              	.L22:
 253 006e 4FF40031 		mov	r1, #131072
 254 0072 01E0     		b	.L13
 255              	.L23:
 256 0074 4FF00071 		mov	r1, #33554432
 257              	.L13:
 264:./Drivers_V1.0.4/STM32F1xx_HAL_Driver/Src/stm32f1xx_hal_dma.c ****   __HAL_DMA_CLEAR_FLAG(hdma, __HAL_DMA_GET_TE_FLAG_INDEX(hdma));
 258              		.loc 1 264 0 discriminator 24
 259 0078 2E4A     		ldr	r2, .L36+4
 260 007a 5160     		str	r1, [r2, #4]
 265:./Drivers_V1.0.4/STM32F1xx_HAL_Driver/Src/stm32f1xx_hal_dma.c ****   __HAL_DMA_CLEAR_FLAG(hdma, __HAL_DMA_GET_HT_FLAG_INDEX(hdma));
 261              		.loc 1 265 0 is_stmt 1 discriminator 24
 262 007c 1A68     		ldr	r2, [r3]
 263 007e 2C49     		ldr	r1, .L36
 264 0080 8A42     		cmp	r2, r1
 265 0082 11D0     		beq	.L24
 265:./Drivers_V1.0.4/STM32F1xx_HAL_Driver/Src/stm32f1xx_hal_dma.c ****   __HAL_DMA_CLEAR_FLAG(hdma, __HAL_DMA_GET_HT_FLAG_INDEX(hdma));
 266              		.loc 1 265 0 is_stmt 0 discriminator 1
 267 0084 1431     		adds	r1, r1, #20
 268 0086 8A42     		cmp	r2, r1
 269 0088 10D0     		beq	.L25
 265:./Drivers_V1.0.4/STM32F1xx_HAL_Driver/Src/stm32f1xx_hal_dma.c ****   __HAL_DMA_CLEAR_FLAG(hdma, __HAL_DMA_GET_HT_FLAG_INDEX(hdma));
 270              		.loc 1 265 0 discriminator 3
 271 008a 1431     		adds	r1, r1, #20
 272 008c 8A42     		cmp	r2, r1
 273 008e 0FD0     		beq	.L26
 265:./Drivers_V1.0.4/STM32F1xx_HAL_Driver/Src/stm32f1xx_hal_dma.c ****   __HAL_DMA_CLEAR_FLAG(hdma, __HAL_DMA_GET_HT_FLAG_INDEX(hdma));
 274              		.loc 1 265 0 discriminator 5
 275 0090 1431     		adds	r1, r1, #20
 276 0092 8A42     		cmp	r2, r1
 277 0094 0FD0     		beq	.L27
 265:./Drivers_V1.0.4/STM32F1xx_HAL_Driver/Src/stm32f1xx_hal_dma.c ****   __HAL_DMA_CLEAR_FLAG(hdma, __HAL_DMA_GET_HT_FLAG_INDEX(hdma));
 278              		.loc 1 265 0 discriminator 7
 279 0096 1431     		adds	r1, r1, #20
 280 0098 8A42     		cmp	r2, r1
 281 009a 0FD0     		beq	.L28
 265:./Drivers_V1.0.4/STM32F1xx_HAL_Driver/Src/stm32f1xx_hal_dma.c ****   __HAL_DMA_CLEAR_FLAG(hdma, __HAL_DMA_GET_HT_FLAG_INDEX(hdma));
 282              		.loc 1 265 0 discriminator 9
 283 009c 1431     		adds	r1, r1, #20
 284 009e 8A42     		cmp	r2, r1
 285 00a0 0FD1     		bne	.L29
 265:./Drivers_V1.0.4/STM32F1xx_HAL_Driver/Src/stm32f1xx_hal_dma.c ****   __HAL_DMA_CLEAR_FLAG(hdma, __HAL_DMA_GET_HT_FLAG_INDEX(hdma));
 286              		.loc 1 265 0
 287 00a2 4FF40001 		mov	r1, #8388608
 288 00a6 0EE0     		b	.L14
 289              	.L24:
ARM GAS  /var/folders/jn/652hmfdj2m99syhs9p34dk640000gq/T//ccGWydQU.s 			page 19


 290 00a8 0821     		movs	r1, #8
 291 00aa 0CE0     		b	.L14
 292              	.L25:
 293 00ac 8021     		movs	r1, #128
 294 00ae 0AE0     		b	.L14
 295              	.L26:
 296 00b0 4FF40061 		mov	r1, #2048
 297 00b4 07E0     		b	.L14
 298              	.L27:
 299 00b6 4FF40041 		mov	r1, #32768
 300 00ba 04E0     		b	.L14
 301              	.L28:
 302 00bc 4FF40021 		mov	r1, #524288
 303 00c0 01E0     		b	.L14
 304              	.L29:
 305 00c2 4FF00061 		mov	r1, #134217728
 306              	.L14:
 265:./Drivers_V1.0.4/STM32F1xx_HAL_Driver/Src/stm32f1xx_hal_dma.c ****   __HAL_DMA_CLEAR_FLAG(hdma, __HAL_DMA_GET_HT_FLAG_INDEX(hdma));
 307              		.loc 1 265 0 discriminator 24
 308 00c6 1B4A     		ldr	r2, .L36+4
 309 00c8 5160     		str	r1, [r2, #4]
 266:./Drivers_V1.0.4/STM32F1xx_HAL_Driver/Src/stm32f1xx_hal_dma.c ****   
 310              		.loc 1 266 0 is_stmt 1 discriminator 24
 311 00ca 1A68     		ldr	r2, [r3]
 312 00cc 1849     		ldr	r1, .L36
 313 00ce 8A42     		cmp	r2, r1
 314 00d0 11D0     		beq	.L30
 266:./Drivers_V1.0.4/STM32F1xx_HAL_Driver/Src/stm32f1xx_hal_dma.c ****   
 315              		.loc 1 266 0 is_stmt 0 discriminator 1
 316 00d2 1431     		adds	r1, r1, #20
 317 00d4 8A42     		cmp	r2, r1
 318 00d6 10D0     		beq	.L31
 266:./Drivers_V1.0.4/STM32F1xx_HAL_Driver/Src/stm32f1xx_hal_dma.c ****   
 319              		.loc 1 266 0 discriminator 3
 320 00d8 1431     		adds	r1, r1, #20
 321 00da 8A42     		cmp	r2, r1
 322 00dc 0FD0     		beq	.L32
 266:./Drivers_V1.0.4/STM32F1xx_HAL_Driver/Src/stm32f1xx_hal_dma.c ****   
 323              		.loc 1 266 0 discriminator 5
 324 00de 1431     		adds	r1, r1, #20
 325 00e0 8A42     		cmp	r2, r1
 326 00e2 0FD0     		beq	.L33
 266:./Drivers_V1.0.4/STM32F1xx_HAL_Driver/Src/stm32f1xx_hal_dma.c ****   
 327              		.loc 1 266 0 discriminator 7
 328 00e4 1431     		adds	r1, r1, #20
 329 00e6 8A42     		cmp	r2, r1
 330 00e8 0FD0     		beq	.L34
 266:./Drivers_V1.0.4/STM32F1xx_HAL_Driver/Src/stm32f1xx_hal_dma.c ****   
 331              		.loc 1 266 0 discriminator 9
 332 00ea 1431     		adds	r1, r1, #20
 333 00ec 8A42     		cmp	r2, r1
 334 00ee 0FD1     		bne	.L35
 266:./Drivers_V1.0.4/STM32F1xx_HAL_Driver/Src/stm32f1xx_hal_dma.c ****   
 335              		.loc 1 266 0
 336 00f0 4FF48001 		mov	r1, #4194304
 337 00f4 0EE0     		b	.L15
 338              	.L30:
ARM GAS  /var/folders/jn/652hmfdj2m99syhs9p34dk640000gq/T//ccGWydQU.s 			page 20


 339 00f6 0421     		movs	r1, #4
 340 00f8 0CE0     		b	.L15
 341              	.L31:
 342 00fa 4021     		movs	r1, #64
 343 00fc 0AE0     		b	.L15
 344              	.L32:
 345 00fe 4FF48061 		mov	r1, #1024
 346 0102 07E0     		b	.L15
 347              	.L33:
 348 0104 4FF48041 		mov	r1, #16384
 349 0108 04E0     		b	.L15
 350              	.L34:
 351 010a 4FF48021 		mov	r1, #262144
 352 010e 01E0     		b	.L15
 353              	.L35:
 354 0110 4FF08061 		mov	r1, #67108864
 355              	.L15:
 266:./Drivers_V1.0.4/STM32F1xx_HAL_Driver/Src/stm32f1xx_hal_dma.c ****   
 356              		.loc 1 266 0 discriminator 24
 357 0114 074A     		ldr	r2, .L36+4
 358 0116 5160     		str	r1, [r2, #4]
 269:./Drivers_V1.0.4/STM32F1xx_HAL_Driver/Src/stm32f1xx_hal_dma.c **** 
 359              		.loc 1 269 0 is_stmt 1 discriminator 24
 360 0118 0020     		movs	r0, #0
 361              	.LVL15:
 362 011a 5863     		str	r0, [r3, #52]
 272:./Drivers_V1.0.4/STM32F1xx_HAL_Driver/Src/stm32f1xx_hal_dma.c **** 
 363              		.loc 1 272 0 discriminator 24
 364 011c 83F82100 		strb	r0, [r3, #33]
 275:./Drivers_V1.0.4/STM32F1xx_HAL_Driver/Src/stm32f1xx_hal_dma.c **** 
 365              		.loc 1 275 0 discriminator 24
 366 0120 83F82000 		strb	r0, [r3, #32]
 277:./Drivers_V1.0.4/STM32F1xx_HAL_Driver/Src/stm32f1xx_hal_dma.c **** }
 367              		.loc 1 277 0 discriminator 24
 368 0124 7047     		bx	lr
 369              	.LVL16:
 370              	.L16:
 236:./Drivers_V1.0.4/STM32F1xx_HAL_Driver/Src/stm32f1xx_hal_dma.c ****   }
 371              		.loc 1 236 0
 372 0126 0120     		movs	r0, #1
 373              	.LVL17:
 374 0128 7047     		bx	lr
 375              	.LVL18:
 376              	.L17:
 245:./Drivers_V1.0.4/STM32F1xx_HAL_Driver/Src/stm32f1xx_hal_dma.c ****   }
 377              		.loc 1 245 0
 378 012a 0120     		movs	r0, #1
 379              	.LVL19:
 278:./Drivers_V1.0.4/STM32F1xx_HAL_Driver/Src/stm32f1xx_hal_dma.c **** 
 380              		.loc 1 278 0
 381 012c 7047     		bx	lr
 382              	.L37:
 383 012e 00BF     		.align	2
 384              	.L36:
 385 0130 08000240 		.word	1073872904
 386 0134 00000240 		.word	1073872896
 387              		.cfi_endproc
ARM GAS  /var/folders/jn/652hmfdj2m99syhs9p34dk640000gq/T//ccGWydQU.s 			page 21


 388              	.LFE65:
 390              		.section	.text.HAL_DMA_Start,"ax",%progbits
 391              		.align	2
 392              		.global	HAL_DMA_Start
 393              		.thumb
 394              		.thumb_func
 396              	HAL_DMA_Start:
 397              	.LFB66:
 313:./Drivers_V1.0.4/STM32F1xx_HAL_Driver/Src/stm32f1xx_hal_dma.c ****   /* Process locked */
 398              		.loc 1 313 0
 399              		.cfi_startproc
 400              		@ args = 0, pretend = 0, frame = 0
 401              		@ frame_needed = 0, uses_anonymous_args = 0
 402              	.LVL20:
 403 0000 38B5     		push	{r3, r4, r5, lr}
 404              	.LCFI6:
 405              		.cfi_def_cfa_offset 16
 406              		.cfi_offset 3, -16
 407              		.cfi_offset 4, -12
 408              		.cfi_offset 5, -8
 409              		.cfi_offset 14, -4
 315:./Drivers_V1.0.4/STM32F1xx_HAL_Driver/Src/stm32f1xx_hal_dma.c **** 
 410              		.loc 1 315 0
 411 0002 90F82040 		ldrb	r4, [r0, #32]	@ zero_extendqisi2
 412 0006 012C     		cmp	r4, #1
 413 0008 15D0     		beq	.L40
 414 000a 0446     		mov	r4, r0
 315:./Drivers_V1.0.4/STM32F1xx_HAL_Driver/Src/stm32f1xx_hal_dma.c **** 
 415              		.loc 1 315 0 is_stmt 0 discriminator 2
 416 000c 0120     		movs	r0, #1
 417              	.LVL21:
 418 000e 84F82000 		strb	r0, [r4, #32]
 318:./Drivers_V1.0.4/STM32F1xx_HAL_Driver/Src/stm32f1xx_hal_dma.c **** 
 419              		.loc 1 318 0 is_stmt 1 discriminator 2
 420 0012 0220     		movs	r0, #2
 421 0014 84F82100 		strb	r0, [r4, #33]
 324:./Drivers_V1.0.4/STM32F1xx_HAL_Driver/Src/stm32f1xx_hal_dma.c ****   
 422              		.loc 1 324 0 discriminator 2
 423 0018 2568     		ldr	r5, [r4]
 424 001a 2868     		ldr	r0, [r5]
 425 001c 20F00100 		bic	r0, r0, #1
 426 0020 2860     		str	r0, [r5]
 327:./Drivers_V1.0.4/STM32F1xx_HAL_Driver/Src/stm32f1xx_hal_dma.c **** 
 427              		.loc 1 327 0 discriminator 2
 428 0022 2046     		mov	r0, r4
 429 0024 FFF7FEFF 		bl	DMA_SetConfig
 430              	.LVL22:
 330:./Drivers_V1.0.4/STM32F1xx_HAL_Driver/Src/stm32f1xx_hal_dma.c **** 
 431              		.loc 1 330 0 discriminator 2
 432 0028 2268     		ldr	r2, [r4]
 433 002a 1368     		ldr	r3, [r2]
 434 002c 43F00103 		orr	r3, r3, #1
 435 0030 1360     		str	r3, [r2]
 332:./Drivers_V1.0.4/STM32F1xx_HAL_Driver/Src/stm32f1xx_hal_dma.c **** }
 436              		.loc 1 332 0 discriminator 2
 437 0032 0020     		movs	r0, #0
 438 0034 38BD     		pop	{r3, r4, r5, pc}
ARM GAS  /var/folders/jn/652hmfdj2m99syhs9p34dk640000gq/T//ccGWydQU.s 			page 22


 439              	.LVL23:
 440              	.L40:
 315:./Drivers_V1.0.4/STM32F1xx_HAL_Driver/Src/stm32f1xx_hal_dma.c **** 
 441              		.loc 1 315 0
 442 0036 0220     		movs	r0, #2
 443              	.LVL24:
 333:./Drivers_V1.0.4/STM32F1xx_HAL_Driver/Src/stm32f1xx_hal_dma.c **** 
 444              		.loc 1 333 0
 445 0038 38BD     		pop	{r3, r4, r5, pc}
 446              		.cfi_endproc
 447              	.LFE66:
 449              		.section	.text.HAL_DMA_Start_IT,"ax",%progbits
 450              		.align	2
 451              		.global	HAL_DMA_Start_IT
 452              		.thumb
 453              		.thumb_func
 455              	HAL_DMA_Start_IT:
 456              	.LFB67:
 345:./Drivers_V1.0.4/STM32F1xx_HAL_Driver/Src/stm32f1xx_hal_dma.c ****   /* Process locked */
 457              		.loc 1 345 0
 458              		.cfi_startproc
 459              		@ args = 0, pretend = 0, frame = 0
 460              		@ frame_needed = 0, uses_anonymous_args = 0
 461              	.LVL25:
 462 0000 38B5     		push	{r3, r4, r5, lr}
 463              	.LCFI7:
 464              		.cfi_def_cfa_offset 16
 465              		.cfi_offset 3, -16
 466              		.cfi_offset 4, -12
 467              		.cfi_offset 5, -8
 468              		.cfi_offset 14, -4
 347:./Drivers_V1.0.4/STM32F1xx_HAL_Driver/Src/stm32f1xx_hal_dma.c **** 
 469              		.loc 1 347 0
 470 0002 90F82040 		ldrb	r4, [r0, #32]	@ zero_extendqisi2
 471 0006 012C     		cmp	r4, #1
 472 0008 24D0     		beq	.L44
 473 000a 0446     		mov	r4, r0
 347:./Drivers_V1.0.4/STM32F1xx_HAL_Driver/Src/stm32f1xx_hal_dma.c **** 
 474              		.loc 1 347 0 is_stmt 0 discriminator 2
 475 000c 0120     		movs	r0, #1
 476              	.LVL26:
 477 000e 84F82000 		strb	r0, [r4, #32]
 350:./Drivers_V1.0.4/STM32F1xx_HAL_Driver/Src/stm32f1xx_hal_dma.c **** 
 478              		.loc 1 350 0 is_stmt 1 discriminator 2
 479 0012 0220     		movs	r0, #2
 480 0014 84F82100 		strb	r0, [r4, #33]
 356:./Drivers_V1.0.4/STM32F1xx_HAL_Driver/Src/stm32f1xx_hal_dma.c ****   
 481              		.loc 1 356 0 discriminator 2
 482 0018 2568     		ldr	r5, [r4]
 483 001a 2868     		ldr	r0, [r5]
 484 001c 20F00100 		bic	r0, r0, #1
 485 0020 2860     		str	r0, [r5]
 359:./Drivers_V1.0.4/STM32F1xx_HAL_Driver/Src/stm32f1xx_hal_dma.c ****   
 486              		.loc 1 359 0 discriminator 2
 487 0022 2046     		mov	r0, r4
 488 0024 FFF7FEFF 		bl	DMA_SetConfig
 489              	.LVL27:
ARM GAS  /var/folders/jn/652hmfdj2m99syhs9p34dk640000gq/T//ccGWydQU.s 			page 23


 362:./Drivers_V1.0.4/STM32F1xx_HAL_Driver/Src/stm32f1xx_hal_dma.c **** 
 490              		.loc 1 362 0 discriminator 2
 491 0028 2268     		ldr	r2, [r4]
 492 002a 1368     		ldr	r3, [r2]
 493 002c 43F00203 		orr	r3, r3, #2
 494 0030 1360     		str	r3, [r2]
 365:./Drivers_V1.0.4/STM32F1xx_HAL_Driver/Src/stm32f1xx_hal_dma.c **** 
 495              		.loc 1 365 0 discriminator 2
 496 0032 2268     		ldr	r2, [r4]
 497 0034 1368     		ldr	r3, [r2]
 498 0036 43F00403 		orr	r3, r3, #4
 499 003a 1360     		str	r3, [r2]
 368:./Drivers_V1.0.4/STM32F1xx_HAL_Driver/Src/stm32f1xx_hal_dma.c ****   
 500              		.loc 1 368 0 discriminator 2
 501 003c 2268     		ldr	r2, [r4]
 502 003e 1368     		ldr	r3, [r2]
 503 0040 43F00803 		orr	r3, r3, #8
 504 0044 1360     		str	r3, [r2]
 371:./Drivers_V1.0.4/STM32F1xx_HAL_Driver/Src/stm32f1xx_hal_dma.c ****   
 505              		.loc 1 371 0 discriminator 2
 506 0046 2268     		ldr	r2, [r4]
 507 0048 1368     		ldr	r3, [r2]
 508 004a 43F00103 		orr	r3, r3, #1
 509 004e 1360     		str	r3, [r2]
 373:./Drivers_V1.0.4/STM32F1xx_HAL_Driver/Src/stm32f1xx_hal_dma.c **** } 
 510              		.loc 1 373 0 discriminator 2
 511 0050 0020     		movs	r0, #0
 512 0052 38BD     		pop	{r3, r4, r5, pc}
 513              	.LVL28:
 514              	.L44:
 347:./Drivers_V1.0.4/STM32F1xx_HAL_Driver/Src/stm32f1xx_hal_dma.c **** 
 515              		.loc 1 347 0
 516 0054 0220     		movs	r0, #2
 517              	.LVL29:
 374:./Drivers_V1.0.4/STM32F1xx_HAL_Driver/Src/stm32f1xx_hal_dma.c **** 
 518              		.loc 1 374 0
 519 0056 38BD     		pop	{r3, r4, r5, pc}
 520              		.cfi_endproc
 521              	.LFE67:
 523              		.section	.text.HAL_DMA_Abort,"ax",%progbits
 524              		.align	2
 525              		.global	HAL_DMA_Abort
 526              		.thumb
 527              		.thumb_func
 529              	HAL_DMA_Abort:
 530              	.LFB68:
 389:./Drivers_V1.0.4/STM32F1xx_HAL_Driver/Src/stm32f1xx_hal_dma.c ****   uint32_t tickstart = 0x00;
 531              		.loc 1 389 0
 532              		.cfi_startproc
 533              		@ args = 0, pretend = 0, frame = 0
 534              		@ frame_needed = 0, uses_anonymous_args = 0
 535              	.LVL30:
 536 0000 38B5     		push	{r3, r4, r5, lr}
 537              	.LCFI8:
 538              		.cfi_def_cfa_offset 16
 539              		.cfi_offset 3, -16
 540              		.cfi_offset 4, -12
ARM GAS  /var/folders/jn/652hmfdj2m99syhs9p34dk640000gq/T//ccGWydQU.s 			page 24


 541              		.cfi_offset 5, -8
 542              		.cfi_offset 14, -4
 543 0002 0446     		mov	r4, r0
 544              	.LVL31:
 393:./Drivers_V1.0.4/STM32F1xx_HAL_Driver/Src/stm32f1xx_hal_dma.c **** 
 545              		.loc 1 393 0
 546 0004 0268     		ldr	r2, [r0]
 547 0006 1368     		ldr	r3, [r2]
 548 0008 23F00103 		bic	r3, r3, #1
 549 000c 1360     		str	r3, [r2]
 396:./Drivers_V1.0.4/STM32F1xx_HAL_Driver/Src/stm32f1xx_hal_dma.c ****   
 550              		.loc 1 396 0
 551 000e FFF7FEFF 		bl	HAL_GetTick
 552              	.LVL32:
 553 0012 0546     		mov	r5, r0
 554              	.LVL33:
 399:./Drivers_V1.0.4/STM32F1xx_HAL_Driver/Src/stm32f1xx_hal_dma.c ****   {
 555              		.loc 1 399 0
 556 0014 10E0     		b	.L47
 557              	.LVL34:
 558              	.L49:
 402:./Drivers_V1.0.4/STM32F1xx_HAL_Driver/Src/stm32f1xx_hal_dma.c ****     {
 559              		.loc 1 402 0
 560 0016 FFF7FEFF 		bl	HAL_GetTick
 561              	.LVL35:
 562 001a 401B     		subs	r0, r0, r5
 563 001c B0F57A7F 		cmp	r0, #1000
 564 0020 0AD9     		bls	.L47
 405:./Drivers_V1.0.4/STM32F1xx_HAL_Driver/Src/stm32f1xx_hal_dma.c **** 
 565              		.loc 1 405 0
 566 0022 636B     		ldr	r3, [r4, #52]
 567 0024 43F02003 		orr	r3, r3, #32
 568 0028 6363     		str	r3, [r4, #52]
 408:./Drivers_V1.0.4/STM32F1xx_HAL_Driver/Src/stm32f1xx_hal_dma.c **** 
 569              		.loc 1 408 0
 570 002a 0320     		movs	r0, #3
 571 002c 84F82100 		strb	r0, [r4, #33]
 411:./Drivers_V1.0.4/STM32F1xx_HAL_Driver/Src/stm32f1xx_hal_dma.c **** 
 572              		.loc 1 411 0
 573 0030 0023     		movs	r3, #0
 574 0032 84F82030 		strb	r3, [r4, #32]
 413:./Drivers_V1.0.4/STM32F1xx_HAL_Driver/Src/stm32f1xx_hal_dma.c ****     }
 575              		.loc 1 413 0
 576 0036 38BD     		pop	{r3, r4, r5, pc}
 577              	.LVL36:
 578              	.L47:
 399:./Drivers_V1.0.4/STM32F1xx_HAL_Driver/Src/stm32f1xx_hal_dma.c ****   {
 579              		.loc 1 399 0
 580 0038 2368     		ldr	r3, [r4]
 581 003a 1B68     		ldr	r3, [r3]
 582 003c 13F0010F 		tst	r3, #1
 583 0040 E9D1     		bne	.L49
 417:./Drivers_V1.0.4/STM32F1xx_HAL_Driver/Src/stm32f1xx_hal_dma.c ****   
 584              		.loc 1 417 0
 585 0042 0123     		movs	r3, #1
 586 0044 84F82130 		strb	r3, [r4, #33]
 420:./Drivers_V1.0.4/STM32F1xx_HAL_Driver/Src/stm32f1xx_hal_dma.c ****   
ARM GAS  /var/folders/jn/652hmfdj2m99syhs9p34dk640000gq/T//ccGWydQU.s 			page 25


 587              		.loc 1 420 0
 588 0048 0020     		movs	r0, #0
 589 004a 84F82000 		strb	r0, [r4, #32]
 423:./Drivers_V1.0.4/STM32F1xx_HAL_Driver/Src/stm32f1xx_hal_dma.c **** 
 590              		.loc 1 423 0
 591 004e 38BD     		pop	{r3, r4, r5, pc}
 592              		.cfi_endproc
 593              	.LFE68:
 595              		.section	.text.HAL_DMA_PollForTransfer,"ax",%progbits
 596              		.align	2
 597              		.global	HAL_DMA_PollForTransfer
 598              		.thumb
 599              		.thumb_func
 601              	HAL_DMA_PollForTransfer:
 602              	.LFB69:
 434:./Drivers_V1.0.4/STM32F1xx_HAL_Driver/Src/stm32f1xx_hal_dma.c ****   uint32_t temp;
 603              		.loc 1 434 0
 604              		.cfi_startproc
 605              		@ args = 0, pretend = 0, frame = 0
 606              		@ frame_needed = 0, uses_anonymous_args = 0
 607              	.LVL37:
 608 0000 2DE9F041 		push	{r4, r5, r6, r7, r8, lr}
 609              	.LCFI9:
 610              		.cfi_def_cfa_offset 24
 611              		.cfi_offset 4, -24
 612              		.cfi_offset 5, -20
 613              		.cfi_offset 6, -16
 614              		.cfi_offset 7, -12
 615              		.cfi_offset 8, -8
 616              		.cfi_offset 14, -4
 617 0004 0446     		mov	r4, r0
 618 0006 1646     		mov	r6, r2
 619              	.LVL38:
 439:./Drivers_V1.0.4/STM32F1xx_HAL_Driver/Src/stm32f1xx_hal_dma.c ****   {
 620              		.loc 1 439 0
 621 0008 0F46     		mov	r7, r1
 622 000a A9B9     		cbnz	r1, .L52
 442:./Drivers_V1.0.4/STM32F1xx_HAL_Driver/Src/stm32f1xx_hal_dma.c ****   }
 623              		.loc 1 442 0
 624 000c 0368     		ldr	r3, [r0]
 625 000e 8F4A     		ldr	r2, .L103
 626              	.LVL39:
 627 0010 9342     		cmp	r3, r2
 628 0012 27D0     		beq	.L66
 442:./Drivers_V1.0.4/STM32F1xx_HAL_Driver/Src/stm32f1xx_hal_dma.c ****   }
 629              		.loc 1 442 0 is_stmt 0 discriminator 1
 630 0014 1432     		adds	r2, r2, #20
 631 0016 9342     		cmp	r3, r2
 632 0018 26D0     		beq	.L67
 442:./Drivers_V1.0.4/STM32F1xx_HAL_Driver/Src/stm32f1xx_hal_dma.c ****   }
 633              		.loc 1 442 0 discriminator 3
 634 001a 1432     		adds	r2, r2, #20
 635 001c 9342     		cmp	r3, r2
 636 001e 25D0     		beq	.L68
 442:./Drivers_V1.0.4/STM32F1xx_HAL_Driver/Src/stm32f1xx_hal_dma.c ****   }
 637              		.loc 1 442 0 discriminator 5
 638 0020 1432     		adds	r2, r2, #20
ARM GAS  /var/folders/jn/652hmfdj2m99syhs9p34dk640000gq/T//ccGWydQU.s 			page 26


 639 0022 9342     		cmp	r3, r2
 640 0024 25D0     		beq	.L69
 442:./Drivers_V1.0.4/STM32F1xx_HAL_Driver/Src/stm32f1xx_hal_dma.c ****   }
 641              		.loc 1 442 0 discriminator 7
 642 0026 1432     		adds	r2, r2, #20
 643 0028 9342     		cmp	r3, r2
 644 002a 25D0     		beq	.L70
 442:./Drivers_V1.0.4/STM32F1xx_HAL_Driver/Src/stm32f1xx_hal_dma.c ****   }
 645              		.loc 1 442 0 discriminator 9
 646 002c 1432     		adds	r2, r2, #20
 647 002e 9342     		cmp	r3, r2
 648 0030 25D1     		bne	.L71
 442:./Drivers_V1.0.4/STM32F1xx_HAL_Driver/Src/stm32f1xx_hal_dma.c ****   }
 649              		.loc 1 442 0
 650 0032 4FF40015 		mov	r5, #2097152
 651 0036 34E0     		b	.L53
 652              	.LVL40:
 653              	.L52:
 447:./Drivers_V1.0.4/STM32F1xx_HAL_Driver/Src/stm32f1xx_hal_dma.c ****   }
 654              		.loc 1 447 0 is_stmt 1
 655 0038 0368     		ldr	r3, [r0]
 656 003a 844A     		ldr	r2, .L103
 657              	.LVL41:
 658 003c 9342     		cmp	r3, r2
 659 003e 21D0     		beq	.L72
 447:./Drivers_V1.0.4/STM32F1xx_HAL_Driver/Src/stm32f1xx_hal_dma.c ****   }
 660              		.loc 1 447 0 is_stmt 0 discriminator 1
 661 0040 1432     		adds	r2, r2, #20
 662 0042 9342     		cmp	r3, r2
 663 0044 20D0     		beq	.L73
 447:./Drivers_V1.0.4/STM32F1xx_HAL_Driver/Src/stm32f1xx_hal_dma.c ****   }
 664              		.loc 1 447 0 discriminator 3
 665 0046 1432     		adds	r2, r2, #20
 666 0048 9342     		cmp	r3, r2
 667 004a 1FD0     		beq	.L74
 447:./Drivers_V1.0.4/STM32F1xx_HAL_Driver/Src/stm32f1xx_hal_dma.c ****   }
 668              		.loc 1 447 0 discriminator 5
 669 004c 1432     		adds	r2, r2, #20
 670 004e 9342     		cmp	r3, r2
 671 0050 1FD0     		beq	.L75
 447:./Drivers_V1.0.4/STM32F1xx_HAL_Driver/Src/stm32f1xx_hal_dma.c ****   }
 672              		.loc 1 447 0 discriminator 7
 673 0052 1432     		adds	r2, r2, #20
 674 0054 9342     		cmp	r3, r2
 675 0056 1FD0     		beq	.L76
 447:./Drivers_V1.0.4/STM32F1xx_HAL_Driver/Src/stm32f1xx_hal_dma.c ****   }
 676              		.loc 1 447 0 discriminator 9
 677 0058 1432     		adds	r2, r2, #20
 678 005a 9342     		cmp	r3, r2
 679 005c 1FD1     		bne	.L77
 447:./Drivers_V1.0.4/STM32F1xx_HAL_Driver/Src/stm32f1xx_hal_dma.c ****   }
 680              		.loc 1 447 0
 681 005e 4FF48005 		mov	r5, #4194304
 682 0062 1EE0     		b	.L53
 683              	.L66:
 442:./Drivers_V1.0.4/STM32F1xx_HAL_Driver/Src/stm32f1xx_hal_dma.c ****   }
 684              		.loc 1 442 0 is_stmt 1
ARM GAS  /var/folders/jn/652hmfdj2m99syhs9p34dk640000gq/T//ccGWydQU.s 			page 27


 685 0064 0225     		movs	r5, #2
 686 0066 1CE0     		b	.L53
 687              	.L67:
 688 0068 2025     		movs	r5, #32
 689 006a 1AE0     		b	.L53
 690              	.L68:
 691 006c 4FF40075 		mov	r5, #512
 692 0070 17E0     		b	.L53
 693              	.L69:
 694 0072 4FF40055 		mov	r5, #8192
 695 0076 14E0     		b	.L53
 696              	.L70:
 697 0078 4FF40035 		mov	r5, #131072
 698 007c 11E0     		b	.L53
 699              	.L71:
 700 007e 4FF00075 		mov	r5, #33554432
 701 0082 0EE0     		b	.L53
 702              	.L72:
 447:./Drivers_V1.0.4/STM32F1xx_HAL_Driver/Src/stm32f1xx_hal_dma.c ****   }
 703              		.loc 1 447 0
 704 0084 0425     		movs	r5, #4
 705 0086 0CE0     		b	.L53
 706              	.L73:
 707 0088 4025     		movs	r5, #64
 708 008a 0AE0     		b	.L53
 709              	.L74:
 710 008c 4FF48065 		mov	r5, #1024
 711 0090 07E0     		b	.L53
 712              	.L75:
 713 0092 4FF48045 		mov	r5, #16384
 714 0096 04E0     		b	.L53
 715              	.L76:
 716 0098 4FF48025 		mov	r5, #262144
 717 009c 01E0     		b	.L53
 718              	.L77:
 719 009e 4FF08065 		mov	r5, #67108864
 720              	.L53:
 721              	.LVL42:
 451:./Drivers_V1.0.4/STM32F1xx_HAL_Driver/Src/stm32f1xx_hal_dma.c **** 
 722              		.loc 1 451 0
 723 00a2 FFF7FEFF 		bl	HAL_GetTick
 724              	.LVL43:
 725 00a6 8046     		mov	r8, r0
 726              	.LVL44:
 453:./Drivers_V1.0.4/STM32F1xx_HAL_Driver/Src/stm32f1xx_hal_dma.c ****   {
 727              		.loc 1 453 0
 728 00a8 71E0     		b	.L59
 729              	.LVL45:
 730              	.L61:
 455:./Drivers_V1.0.4/STM32F1xx_HAL_Driver/Src/stm32f1xx_hal_dma.c ****     {      
 731              		.loc 1 455 0
 732 00aa 694B     		ldr	r3, .L103+4
 733 00ac 1A68     		ldr	r2, [r3]
 734 00ae 2368     		ldr	r3, [r4]
 735 00b0 6649     		ldr	r1, .L103
 736 00b2 8B42     		cmp	r3, r1
 737 00b4 11D0     		beq	.L78
ARM GAS  /var/folders/jn/652hmfdj2m99syhs9p34dk640000gq/T//ccGWydQU.s 			page 28


 455:./Drivers_V1.0.4/STM32F1xx_HAL_Driver/Src/stm32f1xx_hal_dma.c ****     {      
 738              		.loc 1 455 0 is_stmt 0 discriminator 1
 739 00b6 1431     		adds	r1, r1, #20
 740 00b8 8B42     		cmp	r3, r1
 741 00ba 10D0     		beq	.L79
 455:./Drivers_V1.0.4/STM32F1xx_HAL_Driver/Src/stm32f1xx_hal_dma.c ****     {      
 742              		.loc 1 455 0 discriminator 3
 743 00bc 1431     		adds	r1, r1, #20
 744 00be 8B42     		cmp	r3, r1
 745 00c0 0FD0     		beq	.L80
 455:./Drivers_V1.0.4/STM32F1xx_HAL_Driver/Src/stm32f1xx_hal_dma.c ****     {      
 746              		.loc 1 455 0 discriminator 5
 747 00c2 1431     		adds	r1, r1, #20
 748 00c4 8B42     		cmp	r3, r1
 749 00c6 0FD0     		beq	.L81
 455:./Drivers_V1.0.4/STM32F1xx_HAL_Driver/Src/stm32f1xx_hal_dma.c ****     {      
 750              		.loc 1 455 0 discriminator 7
 751 00c8 1431     		adds	r1, r1, #20
 752 00ca 8B42     		cmp	r3, r1
 753 00cc 0FD0     		beq	.L82
 455:./Drivers_V1.0.4/STM32F1xx_HAL_Driver/Src/stm32f1xx_hal_dma.c ****     {      
 754              		.loc 1 455 0 discriminator 9
 755 00ce 1431     		adds	r1, r1, #20
 756 00d0 8B42     		cmp	r3, r1
 757 00d2 0FD1     		bne	.L83
 455:./Drivers_V1.0.4/STM32F1xx_HAL_Driver/Src/stm32f1xx_hal_dma.c ****     {      
 758              		.loc 1 455 0
 759 00d4 4FF40001 		mov	r1, #8388608
 760 00d8 0EE0     		b	.L55
 761              	.L78:
 762 00da 0821     		movs	r1, #8
 763 00dc 0CE0     		b	.L55
 764              	.L79:
 765 00de 8021     		movs	r1, #128
 766 00e0 0AE0     		b	.L55
 767              	.L80:
 768 00e2 4FF40061 		mov	r1, #2048
 769 00e6 07E0     		b	.L55
 770              	.L81:
 771 00e8 4FF40041 		mov	r1, #32768
 772 00ec 04E0     		b	.L55
 773              	.L82:
 774 00ee 4FF40021 		mov	r1, #524288
 775 00f2 01E0     		b	.L55
 776              	.L83:
 777 00f4 4FF00061 		mov	r1, #134217728
 778              	.L55:
 455:./Drivers_V1.0.4/STM32F1xx_HAL_Driver/Src/stm32f1xx_hal_dma.c ****     {      
 779              		.loc 1 455 0 discriminator 24
 780 00f8 1142     		tst	r1, r2
 781 00fa 32D0     		beq	.L56
 458:./Drivers_V1.0.4/STM32F1xx_HAL_Driver/Src/stm32f1xx_hal_dma.c ****       
 782              		.loc 1 458 0 is_stmt 1
 783 00fc 534A     		ldr	r2, .L103
 784 00fe 9342     		cmp	r3, r2
 785 0100 11D0     		beq	.L84
 458:./Drivers_V1.0.4/STM32F1xx_HAL_Driver/Src/stm32f1xx_hal_dma.c ****       
ARM GAS  /var/folders/jn/652hmfdj2m99syhs9p34dk640000gq/T//ccGWydQU.s 			page 29


 786              		.loc 1 458 0 is_stmt 0 discriminator 1
 787 0102 1432     		adds	r2, r2, #20
 788 0104 9342     		cmp	r3, r2
 789 0106 10D0     		beq	.L85
 458:./Drivers_V1.0.4/STM32F1xx_HAL_Driver/Src/stm32f1xx_hal_dma.c ****       
 790              		.loc 1 458 0 discriminator 3
 791 0108 1432     		adds	r2, r2, #20
 792 010a 9342     		cmp	r3, r2
 793 010c 0FD0     		beq	.L86
 458:./Drivers_V1.0.4/STM32F1xx_HAL_Driver/Src/stm32f1xx_hal_dma.c ****       
 794              		.loc 1 458 0 discriminator 5
 795 010e 1432     		adds	r2, r2, #20
 796 0110 9342     		cmp	r3, r2
 797 0112 0FD0     		beq	.L87
 458:./Drivers_V1.0.4/STM32F1xx_HAL_Driver/Src/stm32f1xx_hal_dma.c ****       
 798              		.loc 1 458 0 discriminator 7
 799 0114 1432     		adds	r2, r2, #20
 800 0116 9342     		cmp	r3, r2
 801 0118 0FD0     		beq	.L88
 458:./Drivers_V1.0.4/STM32F1xx_HAL_Driver/Src/stm32f1xx_hal_dma.c ****       
 802              		.loc 1 458 0 discriminator 9
 803 011a 1432     		adds	r2, r2, #20
 804 011c 9342     		cmp	r3, r2
 805 011e 0FD1     		bne	.L89
 458:./Drivers_V1.0.4/STM32F1xx_HAL_Driver/Src/stm32f1xx_hal_dma.c ****       
 806              		.loc 1 458 0
 807 0120 4FF40002 		mov	r2, #8388608
 808 0124 0EE0     		b	.L57
 809              	.L84:
 810 0126 0822     		movs	r2, #8
 811 0128 0CE0     		b	.L57
 812              	.L85:
 813 012a 8022     		movs	r2, #128
 814 012c 0AE0     		b	.L57
 815              	.L86:
 816 012e 4FF40062 		mov	r2, #2048
 817 0132 07E0     		b	.L57
 818              	.L87:
 819 0134 4FF40042 		mov	r2, #32768
 820 0138 04E0     		b	.L57
 821              	.L88:
 822 013a 4FF40022 		mov	r2, #524288
 823 013e 01E0     		b	.L57
 824              	.L89:
 825 0140 4FF00062 		mov	r2, #134217728
 826              	.L57:
 458:./Drivers_V1.0.4/STM32F1xx_HAL_Driver/Src/stm32f1xx_hal_dma.c ****       
 827              		.loc 1 458 0 discriminator 24
 828 0144 424B     		ldr	r3, .L103+4
 829 0146 5A60     		str	r2, [r3, #4]
 461:./Drivers_V1.0.4/STM32F1xx_HAL_Driver/Src/stm32f1xx_hal_dma.c **** 
 830              		.loc 1 461 0 is_stmt 1 discriminator 24
 831 0148 636B     		ldr	r3, [r4, #52]
 832 014a 43F00103 		orr	r3, r3, #1
 833 014e 6363     		str	r3, [r4, #52]
 464:./Drivers_V1.0.4/STM32F1xx_HAL_Driver/Src/stm32f1xx_hal_dma.c ****       
 834              		.loc 1 464 0 discriminator 24
ARM GAS  /var/folders/jn/652hmfdj2m99syhs9p34dk640000gq/T//ccGWydQU.s 			page 30


 835 0150 0423     		movs	r3, #4
 836 0152 84F82130 		strb	r3, [r4, #33]
 467:./Drivers_V1.0.4/STM32F1xx_HAL_Driver/Src/stm32f1xx_hal_dma.c ****       
 837              		.loc 1 467 0 discriminator 24
 838 0156 0023     		movs	r3, #0
 839 0158 84F82030 		strb	r3, [r4, #32]
 469:./Drivers_V1.0.4/STM32F1xx_HAL_Driver/Src/stm32f1xx_hal_dma.c ****     }
 840              		.loc 1 469 0 discriminator 24
 841 015c 0120     		movs	r0, #1
 842 015e BDE8F081 		pop	{r4, r5, r6, r7, r8, pc}
 843              	.LVL46:
 844              	.L56:
 472:./Drivers_V1.0.4/STM32F1xx_HAL_Driver/Src/stm32f1xx_hal_dma.c ****     {
 845              		.loc 1 472 0
 846 0162 B6F1FF3F 		cmp	r6, #-1
 847 0166 12D0     		beq	.L59
 474:./Drivers_V1.0.4/STM32F1xx_HAL_Driver/Src/stm32f1xx_hal_dma.c ****       {
 848              		.loc 1 474 0
 849 0168 2EB1     		cbz	r6, .L60
 474:./Drivers_V1.0.4/STM32F1xx_HAL_Driver/Src/stm32f1xx_hal_dma.c ****       {
 850              		.loc 1 474 0 is_stmt 0 discriminator 1
 851 016a FFF7FEFF 		bl	HAL_GetTick
 852              	.LVL47:
 853 016e C8EB0000 		rsb	r0, r8, r0
 854 0172 8642     		cmp	r6, r0
 855 0174 0BD2     		bcs	.L59
 856              	.L60:
 477:./Drivers_V1.0.4/STM32F1xx_HAL_Driver/Src/stm32f1xx_hal_dma.c ****         
 857              		.loc 1 477 0 is_stmt 1
 858 0176 636B     		ldr	r3, [r4, #52]
 859 0178 43F02003 		orr	r3, r3, #32
 860 017c 6363     		str	r3, [r4, #52]
 480:./Drivers_V1.0.4/STM32F1xx_HAL_Driver/Src/stm32f1xx_hal_dma.c **** 
 861              		.loc 1 480 0
 862 017e 0320     		movs	r0, #3
 863 0180 84F82100 		strb	r0, [r4, #33]
 483:./Drivers_V1.0.4/STM32F1xx_HAL_Driver/Src/stm32f1xx_hal_dma.c ****         
 864              		.loc 1 483 0
 865 0184 0023     		movs	r3, #0
 866 0186 84F82030 		strb	r3, [r4, #32]
 485:./Drivers_V1.0.4/STM32F1xx_HAL_Driver/Src/stm32f1xx_hal_dma.c ****       }
 867              		.loc 1 485 0
 868 018a BDE8F081 		pop	{r4, r5, r6, r7, r8, pc}
 869              	.LVL48:
 870              	.L59:
 453:./Drivers_V1.0.4/STM32F1xx_HAL_Driver/Src/stm32f1xx_hal_dma.c ****   {
 871              		.loc 1 453 0
 872 018e 304B     		ldr	r3, .L103+4
 873 0190 1B68     		ldr	r3, [r3]
 874 0192 1D42     		tst	r5, r3
 875 0194 89D0     		beq	.L61
 490:./Drivers_V1.0.4/STM32F1xx_HAL_Driver/Src/stm32f1xx_hal_dma.c ****   {
 876              		.loc 1 490 0
 877 0196 57BB     		cbnz	r7, .L62
 493:./Drivers_V1.0.4/STM32F1xx_HAL_Driver/Src/stm32f1xx_hal_dma.c **** 
 878              		.loc 1 493 0
 879 0198 2368     		ldr	r3, [r4]
ARM GAS  /var/folders/jn/652hmfdj2m99syhs9p34dk640000gq/T//ccGWydQU.s 			page 31


 880 019a 2C4A     		ldr	r2, .L103
 881 019c 9342     		cmp	r3, r2
 882 019e 11D0     		beq	.L90
 493:./Drivers_V1.0.4/STM32F1xx_HAL_Driver/Src/stm32f1xx_hal_dma.c **** 
 883              		.loc 1 493 0 is_stmt 0 discriminator 1
 884 01a0 1432     		adds	r2, r2, #20
 885 01a2 9342     		cmp	r3, r2
 886 01a4 10D0     		beq	.L91
 493:./Drivers_V1.0.4/STM32F1xx_HAL_Driver/Src/stm32f1xx_hal_dma.c **** 
 887              		.loc 1 493 0 discriminator 3
 888 01a6 1432     		adds	r2, r2, #20
 889 01a8 9342     		cmp	r3, r2
 890 01aa 0FD0     		beq	.L92
 493:./Drivers_V1.0.4/STM32F1xx_HAL_Driver/Src/stm32f1xx_hal_dma.c **** 
 891              		.loc 1 493 0 discriminator 5
 892 01ac 1432     		adds	r2, r2, #20
 893 01ae 9342     		cmp	r3, r2
 894 01b0 0FD0     		beq	.L93
 493:./Drivers_V1.0.4/STM32F1xx_HAL_Driver/Src/stm32f1xx_hal_dma.c **** 
 895              		.loc 1 493 0 discriminator 7
 896 01b2 1432     		adds	r2, r2, #20
 897 01b4 9342     		cmp	r3, r2
 898 01b6 0FD0     		beq	.L94
 493:./Drivers_V1.0.4/STM32F1xx_HAL_Driver/Src/stm32f1xx_hal_dma.c **** 
 899              		.loc 1 493 0 discriminator 9
 900 01b8 1432     		adds	r2, r2, #20
 901 01ba 9342     		cmp	r3, r2
 902 01bc 0FD1     		bne	.L95
 493:./Drivers_V1.0.4/STM32F1xx_HAL_Driver/Src/stm32f1xx_hal_dma.c **** 
 903              		.loc 1 493 0
 904 01be 4FF40012 		mov	r2, #2097152
 905 01c2 0EE0     		b	.L63
 906              	.L90:
 907 01c4 0222     		movs	r2, #2
 908 01c6 0CE0     		b	.L63
 909              	.L91:
 910 01c8 2022     		movs	r2, #32
 911 01ca 0AE0     		b	.L63
 912              	.L92:
 913 01cc 4FF40072 		mov	r2, #512
 914 01d0 07E0     		b	.L63
 915              	.L93:
 916 01d2 4FF40052 		mov	r2, #8192
 917 01d6 04E0     		b	.L63
 918              	.L94:
 919 01d8 4FF40032 		mov	r2, #131072
 920 01dc 01E0     		b	.L63
 921              	.L95:
 922 01de 4FF00072 		mov	r2, #33554432
 923              	.L63:
 493:./Drivers_V1.0.4/STM32F1xx_HAL_Driver/Src/stm32f1xx_hal_dma.c **** 
 924              		.loc 1 493 0 discriminator 24
 925 01e2 1B4B     		ldr	r3, .L103+4
 926 01e4 5A60     		str	r2, [r3, #4]
 497:./Drivers_V1.0.4/STM32F1xx_HAL_Driver/Src/stm32f1xx_hal_dma.c **** 
 927              		.loc 1 497 0 is_stmt 1 discriminator 24
 928 01e6 0123     		movs	r3, #1
ARM GAS  /var/folders/jn/652hmfdj2m99syhs9p34dk640000gq/T//ccGWydQU.s 			page 32


 929 01e8 84F82130 		strb	r3, [r4, #33]
 930 01ec 29E0     		b	.L64
 931              	.L62:
 503:./Drivers_V1.0.4/STM32F1xx_HAL_Driver/Src/stm32f1xx_hal_dma.c ****   
 932              		.loc 1 503 0
 933 01ee 2368     		ldr	r3, [r4]
 934 01f0 164A     		ldr	r2, .L103
 935 01f2 9342     		cmp	r3, r2
 936 01f4 11D0     		beq	.L96
 503:./Drivers_V1.0.4/STM32F1xx_HAL_Driver/Src/stm32f1xx_hal_dma.c ****   
 937              		.loc 1 503 0 is_stmt 0 discriminator 1
 938 01f6 1432     		adds	r2, r2, #20
 939 01f8 9342     		cmp	r3, r2
 940 01fa 10D0     		beq	.L97
 503:./Drivers_V1.0.4/STM32F1xx_HAL_Driver/Src/stm32f1xx_hal_dma.c ****   
 941              		.loc 1 503 0 discriminator 3
 942 01fc 1432     		adds	r2, r2, #20
 943 01fe 9342     		cmp	r3, r2
 944 0200 0FD0     		beq	.L98
 503:./Drivers_V1.0.4/STM32F1xx_HAL_Driver/Src/stm32f1xx_hal_dma.c ****   
 945              		.loc 1 503 0 discriminator 5
 946 0202 1432     		adds	r2, r2, #20
 947 0204 9342     		cmp	r3, r2
 948 0206 0FD0     		beq	.L99
 503:./Drivers_V1.0.4/STM32F1xx_HAL_Driver/Src/stm32f1xx_hal_dma.c ****   
 949              		.loc 1 503 0 discriminator 7
 950 0208 1432     		adds	r2, r2, #20
 951 020a 9342     		cmp	r3, r2
 952 020c 0FD0     		beq	.L100
 503:./Drivers_V1.0.4/STM32F1xx_HAL_Driver/Src/stm32f1xx_hal_dma.c ****   
 953              		.loc 1 503 0 discriminator 9
 954 020e 1432     		adds	r2, r2, #20
 955 0210 9342     		cmp	r3, r2
 956 0212 0FD1     		bne	.L101
 503:./Drivers_V1.0.4/STM32F1xx_HAL_Driver/Src/stm32f1xx_hal_dma.c ****   
 957              		.loc 1 503 0
 958 0214 4FF48002 		mov	r2, #4194304
 959 0218 0EE0     		b	.L65
 960              	.L96:
 961 021a 0422     		movs	r2, #4
 962 021c 0CE0     		b	.L65
 963              	.L97:
 964 021e 4022     		movs	r2, #64
 965 0220 0AE0     		b	.L65
 966              	.L98:
 967 0222 4FF48062 		mov	r2, #1024
 968 0226 07E0     		b	.L65
 969              	.L99:
 970 0228 4FF48042 		mov	r2, #16384
 971 022c 04E0     		b	.L65
 972              	.L100:
 973 022e 4FF48022 		mov	r2, #262144
 974 0232 01E0     		b	.L65
 975              	.L101:
 976 0234 4FF08062 		mov	r2, #67108864
 977              	.L65:
 503:./Drivers_V1.0.4/STM32F1xx_HAL_Driver/Src/stm32f1xx_hal_dma.c ****   
ARM GAS  /var/folders/jn/652hmfdj2m99syhs9p34dk640000gq/T//ccGWydQU.s 			page 33


 978              		.loc 1 503 0 discriminator 24
 979 0238 054B     		ldr	r3, .L103+4
 980 023a 5A60     		str	r2, [r3, #4]
 507:./Drivers_V1.0.4/STM32F1xx_HAL_Driver/Src/stm32f1xx_hal_dma.c ****   }
 981              		.loc 1 507 0 is_stmt 1 discriminator 24
 982 023c 1123     		movs	r3, #17
 983 023e 84F82130 		strb	r3, [r4, #33]
 984              	.L64:
 511:./Drivers_V1.0.4/STM32F1xx_HAL_Driver/Src/stm32f1xx_hal_dma.c **** 
 985              		.loc 1 511 0
 986 0242 0020     		movs	r0, #0
 987 0244 84F82000 		strb	r0, [r4, #32]
 514:./Drivers_V1.0.4/STM32F1xx_HAL_Driver/Src/stm32f1xx_hal_dma.c **** 
 988              		.loc 1 514 0
 989 0248 BDE8F081 		pop	{r4, r5, r6, r7, r8, pc}
 990              	.LVL49:
 991              	.L104:
 992              		.align	2
 993              	.L103:
 994 024c 08000240 		.word	1073872904
 995 0250 00000240 		.word	1073872896
 996              		.cfi_endproc
 997              	.LFE69:
 999              		.section	.text.HAL_DMA_IRQHandler,"ax",%progbits
 1000              		.align	2
 1001              		.global	HAL_DMA_IRQHandler
 1002              		.thumb
 1003              		.thumb_func
 1005              	HAL_DMA_IRQHandler:
 1006              	.LFB70:
 523:./Drivers_V1.0.4/STM32F1xx_HAL_Driver/Src/stm32f1xx_hal_dma.c ****   /* Transfer Error Interrupt management ***************************************/
 1007              		.loc 1 523 0
 1008              		.cfi_startproc
 1009              		@ args = 0, pretend = 0, frame = 0
 1010              		@ frame_needed = 0, uses_anonymous_args = 0
 1011              	.LVL50:
 1012 0000 10B5     		push	{r4, lr}
 1013              	.LCFI10:
 1014              		.cfi_def_cfa_offset 8
 1015              		.cfi_offset 4, -8
 1016              		.cfi_offset 14, -4
 1017 0002 0446     		mov	r4, r0
 525:./Drivers_V1.0.4/STM32F1xx_HAL_Driver/Src/stm32f1xx_hal_dma.c ****   {
 1018              		.loc 1 525 0
 1019 0004 984B     		ldr	r3, .L154
 1020 0006 1A68     		ldr	r2, [r3]
 1021 0008 0368     		ldr	r3, [r0]
 1022 000a 9849     		ldr	r1, .L154+4
 1023 000c 8B42     		cmp	r3, r1
 1024 000e 11D0     		beq	.L117
 525:./Drivers_V1.0.4/STM32F1xx_HAL_Driver/Src/stm32f1xx_hal_dma.c ****   {
 1025              		.loc 1 525 0 is_stmt 0 discriminator 1
 1026 0010 1431     		adds	r1, r1, #20
 1027 0012 8B42     		cmp	r3, r1
 1028 0014 10D0     		beq	.L118
 525:./Drivers_V1.0.4/STM32F1xx_HAL_Driver/Src/stm32f1xx_hal_dma.c ****   {
 1029              		.loc 1 525 0 discriminator 3
ARM GAS  /var/folders/jn/652hmfdj2m99syhs9p34dk640000gq/T//ccGWydQU.s 			page 34


 1030 0016 1431     		adds	r1, r1, #20
 1031 0018 8B42     		cmp	r3, r1
 1032 001a 0FD0     		beq	.L119
 525:./Drivers_V1.0.4/STM32F1xx_HAL_Driver/Src/stm32f1xx_hal_dma.c ****   {
 1033              		.loc 1 525 0 discriminator 5
 1034 001c 1431     		adds	r1, r1, #20
 1035 001e 8B42     		cmp	r3, r1
 1036 0020 0FD0     		beq	.L120
 525:./Drivers_V1.0.4/STM32F1xx_HAL_Driver/Src/stm32f1xx_hal_dma.c ****   {
 1037              		.loc 1 525 0 discriminator 7
 1038 0022 1431     		adds	r1, r1, #20
 1039 0024 8B42     		cmp	r3, r1
 1040 0026 0FD0     		beq	.L121
 525:./Drivers_V1.0.4/STM32F1xx_HAL_Driver/Src/stm32f1xx_hal_dma.c ****   {
 1041              		.loc 1 525 0 discriminator 9
 1042 0028 1431     		adds	r1, r1, #20
 1043 002a 8B42     		cmp	r3, r1
 1044 002c 0FD1     		bne	.L122
 525:./Drivers_V1.0.4/STM32F1xx_HAL_Driver/Src/stm32f1xx_hal_dma.c ****   {
 1045              		.loc 1 525 0
 1046 002e 4FF40001 		mov	r1, #8388608
 1047 0032 0EE0     		b	.L106
 1048              	.L117:
 1049 0034 0821     		movs	r1, #8
 1050 0036 0CE0     		b	.L106
 1051              	.L118:
 1052 0038 8021     		movs	r1, #128
 1053 003a 0AE0     		b	.L106
 1054              	.L119:
 1055 003c 4FF40061 		mov	r1, #2048
 1056 0040 07E0     		b	.L106
 1057              	.L120:
 1058 0042 4FF40041 		mov	r1, #32768
 1059 0046 04E0     		b	.L106
 1060              	.L121:
 1061 0048 4FF40021 		mov	r1, #524288
 1062 004c 01E0     		b	.L106
 1063              	.L122:
 1064 004e 4FF00061 		mov	r1, #134217728
 1065              	.L106:
 525:./Drivers_V1.0.4/STM32F1xx_HAL_Driver/Src/stm32f1xx_hal_dma.c ****   {
 1066              		.loc 1 525 0 discriminator 24
 1067 0052 1142     		tst	r1, r2
 1068 0054 3CD0     		beq	.L107
 527:./Drivers_V1.0.4/STM32F1xx_HAL_Driver/Src/stm32f1xx_hal_dma.c ****     {
 1069              		.loc 1 527 0 is_stmt 1
 1070 0056 1A68     		ldr	r2, [r3]
 1071 0058 12F0080F 		tst	r2, #8
 1072 005c 38D0     		beq	.L107
 530:./Drivers_V1.0.4/STM32F1xx_HAL_Driver/Src/stm32f1xx_hal_dma.c ****       
 1073              		.loc 1 530 0
 1074 005e 1A68     		ldr	r2, [r3]
 1075 0060 22F00802 		bic	r2, r2, #8
 1076 0064 1A60     		str	r2, [r3]
 533:./Drivers_V1.0.4/STM32F1xx_HAL_Driver/Src/stm32f1xx_hal_dma.c ****       
 1077              		.loc 1 533 0
 1078 0066 2368     		ldr	r3, [r4]
ARM GAS  /var/folders/jn/652hmfdj2m99syhs9p34dk640000gq/T//ccGWydQU.s 			page 35


 1079 0068 804A     		ldr	r2, .L154+4
 1080 006a 9342     		cmp	r3, r2
 1081 006c 11D0     		beq	.L123
 533:./Drivers_V1.0.4/STM32F1xx_HAL_Driver/Src/stm32f1xx_hal_dma.c ****       
 1082              		.loc 1 533 0 is_stmt 0 discriminator 1
 1083 006e 1432     		adds	r2, r2, #20
 1084 0070 9342     		cmp	r3, r2
 1085 0072 10D0     		beq	.L124
 533:./Drivers_V1.0.4/STM32F1xx_HAL_Driver/Src/stm32f1xx_hal_dma.c ****       
 1086              		.loc 1 533 0 discriminator 3
 1087 0074 1432     		adds	r2, r2, #20
 1088 0076 9342     		cmp	r3, r2
 1089 0078 0FD0     		beq	.L125
 533:./Drivers_V1.0.4/STM32F1xx_HAL_Driver/Src/stm32f1xx_hal_dma.c ****       
 1090              		.loc 1 533 0 discriminator 5
 1091 007a 1432     		adds	r2, r2, #20
 1092 007c 9342     		cmp	r3, r2
 1093 007e 0FD0     		beq	.L126
 533:./Drivers_V1.0.4/STM32F1xx_HAL_Driver/Src/stm32f1xx_hal_dma.c ****       
 1094              		.loc 1 533 0 discriminator 7
 1095 0080 1432     		adds	r2, r2, #20
 1096 0082 9342     		cmp	r3, r2
 1097 0084 0FD0     		beq	.L127
 533:./Drivers_V1.0.4/STM32F1xx_HAL_Driver/Src/stm32f1xx_hal_dma.c ****       
 1098              		.loc 1 533 0 discriminator 9
 1099 0086 1432     		adds	r2, r2, #20
 1100 0088 9342     		cmp	r3, r2
 1101 008a 0FD1     		bne	.L128
 533:./Drivers_V1.0.4/STM32F1xx_HAL_Driver/Src/stm32f1xx_hal_dma.c ****       
 1102              		.loc 1 533 0
 1103 008c 4FF40002 		mov	r2, #8388608
 1104 0090 0EE0     		b	.L108
 1105              	.L123:
 1106 0092 0822     		movs	r2, #8
 1107 0094 0CE0     		b	.L108
 1108              	.L124:
 1109 0096 8022     		movs	r2, #128
 1110 0098 0AE0     		b	.L108
 1111              	.L125:
 1112 009a 4FF40062 		mov	r2, #2048
 1113 009e 07E0     		b	.L108
 1114              	.L126:
 1115 00a0 4FF40042 		mov	r2, #32768
 1116 00a4 04E0     		b	.L108
 1117              	.L127:
 1118 00a6 4FF40022 		mov	r2, #524288
 1119 00aa 01E0     		b	.L108
 1120              	.L128:
 1121 00ac 4FF00062 		mov	r2, #134217728
 1122              	.L108:
 533:./Drivers_V1.0.4/STM32F1xx_HAL_Driver/Src/stm32f1xx_hal_dma.c ****       
 1123              		.loc 1 533 0 discriminator 24
 1124 00b0 6D4B     		ldr	r3, .L154
 1125 00b2 5A60     		str	r2, [r3, #4]
 536:./Drivers_V1.0.4/STM32F1xx_HAL_Driver/Src/stm32f1xx_hal_dma.c ****       
 1126              		.loc 1 536 0 is_stmt 1 discriminator 24
 1127 00b4 636B     		ldr	r3, [r4, #52]
ARM GAS  /var/folders/jn/652hmfdj2m99syhs9p34dk640000gq/T//ccGWydQU.s 			page 36


 1128 00b6 43F00103 		orr	r3, r3, #1
 1129 00ba 6363     		str	r3, [r4, #52]
 539:./Drivers_V1.0.4/STM32F1xx_HAL_Driver/Src/stm32f1xx_hal_dma.c ****       
 1130              		.loc 1 539 0 discriminator 24
 1131 00bc 0423     		movs	r3, #4
 1132 00be 84F82130 		strb	r3, [r4, #33]
 542:./Drivers_V1.0.4/STM32F1xx_HAL_Driver/Src/stm32f1xx_hal_dma.c ****       
 1133              		.loc 1 542 0 discriminator 24
 1134 00c2 0023     		movs	r3, #0
 1135 00c4 84F82030 		strb	r3, [r4, #32]
 544:./Drivers_V1.0.4/STM32F1xx_HAL_Driver/Src/stm32f1xx_hal_dma.c ****       {
 1136              		.loc 1 544 0 discriminator 24
 1137 00c8 236B     		ldr	r3, [r4, #48]
 1138 00ca 0BB1     		cbz	r3, .L107
 547:./Drivers_V1.0.4/STM32F1xx_HAL_Driver/Src/stm32f1xx_hal_dma.c ****       }
 1139              		.loc 1 547 0
 1140 00cc 2046     		mov	r0, r4
 1141              	.LVL51:
 1142 00ce 9847     		blx	r3
 1143              	.LVL52:
 1144              	.L107:
 553:./Drivers_V1.0.4/STM32F1xx_HAL_Driver/Src/stm32f1xx_hal_dma.c ****   {
 1145              		.loc 1 553 0
 1146 00d0 654B     		ldr	r3, .L154
 1147 00d2 1A68     		ldr	r2, [r3]
 1148 00d4 2368     		ldr	r3, [r4]
 1149 00d6 6549     		ldr	r1, .L154+4
 1150 00d8 8B42     		cmp	r3, r1
 1151 00da 11D0     		beq	.L129
 553:./Drivers_V1.0.4/STM32F1xx_HAL_Driver/Src/stm32f1xx_hal_dma.c ****   {
 1152              		.loc 1 553 0 is_stmt 0 discriminator 1
 1153 00dc 1431     		adds	r1, r1, #20
 1154 00de 8B42     		cmp	r3, r1
 1155 00e0 10D0     		beq	.L130
 553:./Drivers_V1.0.4/STM32F1xx_HAL_Driver/Src/stm32f1xx_hal_dma.c ****   {
 1156              		.loc 1 553 0 discriminator 3
 1157 00e2 1431     		adds	r1, r1, #20
 1158 00e4 8B42     		cmp	r3, r1
 1159 00e6 0FD0     		beq	.L131
 553:./Drivers_V1.0.4/STM32F1xx_HAL_Driver/Src/stm32f1xx_hal_dma.c ****   {
 1160              		.loc 1 553 0 discriminator 5
 1161 00e8 1431     		adds	r1, r1, #20
 1162 00ea 8B42     		cmp	r3, r1
 1163 00ec 0FD0     		beq	.L132
 553:./Drivers_V1.0.4/STM32F1xx_HAL_Driver/Src/stm32f1xx_hal_dma.c ****   {
 1164              		.loc 1 553 0 discriminator 7
 1165 00ee 1431     		adds	r1, r1, #20
 1166 00f0 8B42     		cmp	r3, r1
 1167 00f2 0FD0     		beq	.L133
 553:./Drivers_V1.0.4/STM32F1xx_HAL_Driver/Src/stm32f1xx_hal_dma.c ****   {
 1168              		.loc 1 553 0 discriminator 9
 1169 00f4 1431     		adds	r1, r1, #20
 1170 00f6 8B42     		cmp	r3, r1
 1171 00f8 0FD1     		bne	.L134
 553:./Drivers_V1.0.4/STM32F1xx_HAL_Driver/Src/stm32f1xx_hal_dma.c ****   {
 1172              		.loc 1 553 0
 1173 00fa 4FF48001 		mov	r1, #4194304
ARM GAS  /var/folders/jn/652hmfdj2m99syhs9p34dk640000gq/T//ccGWydQU.s 			page 37


 1174 00fe 0EE0     		b	.L109
 1175              	.L129:
 1176 0100 0421     		movs	r1, #4
 1177 0102 0CE0     		b	.L109
 1178              	.L130:
 1179 0104 4021     		movs	r1, #64
 1180 0106 0AE0     		b	.L109
 1181              	.L131:
 1182 0108 4FF48061 		mov	r1, #1024
 1183 010c 07E0     		b	.L109
 1184              	.L132:
 1185 010e 4FF48041 		mov	r1, #16384
 1186 0112 04E0     		b	.L109
 1187              	.L133:
 1188 0114 4FF48021 		mov	r1, #262144
 1189 0118 01E0     		b	.L109
 1190              	.L134:
 1191 011a 4FF08061 		mov	r1, #67108864
 1192              	.L109:
 553:./Drivers_V1.0.4/STM32F1xx_HAL_Driver/Src/stm32f1xx_hal_dma.c ****   {
 1193              		.loc 1 553 0 discriminator 24
 1194 011e 1142     		tst	r1, r2
 1195 0120 39D0     		beq	.L110
 555:./Drivers_V1.0.4/STM32F1xx_HAL_Driver/Src/stm32f1xx_hal_dma.c ****     { 
 1196              		.loc 1 555 0 is_stmt 1
 1197 0122 1A68     		ldr	r2, [r3]
 1198 0124 12F0040F 		tst	r2, #4
 1199 0128 35D0     		beq	.L110
 558:./Drivers_V1.0.4/STM32F1xx_HAL_Driver/Src/stm32f1xx_hal_dma.c ****       {
 1200              		.loc 1 558 0
 1201 012a 1A68     		ldr	r2, [r3]
 1202 012c 12F0200F 		tst	r2, #32
 1203 0130 03D1     		bne	.L111
 561:./Drivers_V1.0.4/STM32F1xx_HAL_Driver/Src/stm32f1xx_hal_dma.c ****       }
 1204              		.loc 1 561 0
 1205 0132 1A68     		ldr	r2, [r3]
 1206 0134 22F00402 		bic	r2, r2, #4
 1207 0138 1A60     		str	r2, [r3]
 1208              	.L111:
 564:./Drivers_V1.0.4/STM32F1xx_HAL_Driver/Src/stm32f1xx_hal_dma.c **** 
 1209              		.loc 1 564 0
 1210 013a 2368     		ldr	r3, [r4]
 1211 013c 4B4A     		ldr	r2, .L154+4
 1212 013e 9342     		cmp	r3, r2
 1213 0140 11D0     		beq	.L135
 564:./Drivers_V1.0.4/STM32F1xx_HAL_Driver/Src/stm32f1xx_hal_dma.c **** 
 1214              		.loc 1 564 0 is_stmt 0 discriminator 1
 1215 0142 1432     		adds	r2, r2, #20
 1216 0144 9342     		cmp	r3, r2
 1217 0146 10D0     		beq	.L136
 564:./Drivers_V1.0.4/STM32F1xx_HAL_Driver/Src/stm32f1xx_hal_dma.c **** 
 1218              		.loc 1 564 0 discriminator 3
 1219 0148 1432     		adds	r2, r2, #20
 1220 014a 9342     		cmp	r3, r2
 1221 014c 0FD0     		beq	.L137
 564:./Drivers_V1.0.4/STM32F1xx_HAL_Driver/Src/stm32f1xx_hal_dma.c **** 
 1222              		.loc 1 564 0 discriminator 5
ARM GAS  /var/folders/jn/652hmfdj2m99syhs9p34dk640000gq/T//ccGWydQU.s 			page 38


 1223 014e 1432     		adds	r2, r2, #20
 1224 0150 9342     		cmp	r3, r2
 1225 0152 0FD0     		beq	.L138
 564:./Drivers_V1.0.4/STM32F1xx_HAL_Driver/Src/stm32f1xx_hal_dma.c **** 
 1226              		.loc 1 564 0 discriminator 7
 1227 0154 1432     		adds	r2, r2, #20
 1228 0156 9342     		cmp	r3, r2
 1229 0158 0FD0     		beq	.L139
 564:./Drivers_V1.0.4/STM32F1xx_HAL_Driver/Src/stm32f1xx_hal_dma.c **** 
 1230              		.loc 1 564 0 discriminator 9
 1231 015a 1432     		adds	r2, r2, #20
 1232 015c 9342     		cmp	r3, r2
 1233 015e 0FD1     		bne	.L140
 564:./Drivers_V1.0.4/STM32F1xx_HAL_Driver/Src/stm32f1xx_hal_dma.c **** 
 1234              		.loc 1 564 0
 1235 0160 4FF48002 		mov	r2, #4194304
 1236 0164 0EE0     		b	.L112
 1237              	.L135:
 1238 0166 0422     		movs	r2, #4
 1239 0168 0CE0     		b	.L112
 1240              	.L136:
 1241 016a 4022     		movs	r2, #64
 1242 016c 0AE0     		b	.L112
 1243              	.L137:
 1244 016e 4FF48062 		mov	r2, #1024
 1245 0172 07E0     		b	.L112
 1246              	.L138:
 1247 0174 4FF48042 		mov	r2, #16384
 1248 0178 04E0     		b	.L112
 1249              	.L139:
 1250 017a 4FF48022 		mov	r2, #262144
 1251 017e 01E0     		b	.L112
 1252              	.L140:
 1253 0180 4FF08062 		mov	r2, #67108864
 1254              	.L112:
 564:./Drivers_V1.0.4/STM32F1xx_HAL_Driver/Src/stm32f1xx_hal_dma.c **** 
 1255              		.loc 1 564 0 discriminator 24
 1256 0184 384B     		ldr	r3, .L154
 1257 0186 5A60     		str	r2, [r3, #4]
 567:./Drivers_V1.0.4/STM32F1xx_HAL_Driver/Src/stm32f1xx_hal_dma.c **** 
 1258              		.loc 1 567 0 is_stmt 1 discriminator 24
 1259 0188 1123     		movs	r3, #17
 1260 018a 84F82130 		strb	r3, [r4, #33]
 569:./Drivers_V1.0.4/STM32F1xx_HAL_Driver/Src/stm32f1xx_hal_dma.c ****       {
 1261              		.loc 1 569 0 discriminator 24
 1262 018e E36A     		ldr	r3, [r4, #44]
 1263 0190 0BB1     		cbz	r3, .L110
 572:./Drivers_V1.0.4/STM32F1xx_HAL_Driver/Src/stm32f1xx_hal_dma.c ****       }
 1264              		.loc 1 572 0
 1265 0192 2046     		mov	r0, r4
 1266 0194 9847     		blx	r3
 1267              	.LVL53:
 1268              	.L110:
 578:./Drivers_V1.0.4/STM32F1xx_HAL_Driver/Src/stm32f1xx_hal_dma.c ****   {
 1269              		.loc 1 578 0
 1270 0196 344B     		ldr	r3, .L154
 1271 0198 1A68     		ldr	r2, [r3]
ARM GAS  /var/folders/jn/652hmfdj2m99syhs9p34dk640000gq/T//ccGWydQU.s 			page 39


 1272 019a 2368     		ldr	r3, [r4]
 1273 019c 3349     		ldr	r1, .L154+4
 1274 019e 8B42     		cmp	r3, r1
 1275 01a0 11D0     		beq	.L141
 578:./Drivers_V1.0.4/STM32F1xx_HAL_Driver/Src/stm32f1xx_hal_dma.c ****   {
 1276              		.loc 1 578 0 is_stmt 0 discriminator 1
 1277 01a2 1431     		adds	r1, r1, #20
 1278 01a4 8B42     		cmp	r3, r1
 1279 01a6 10D0     		beq	.L142
 578:./Drivers_V1.0.4/STM32F1xx_HAL_Driver/Src/stm32f1xx_hal_dma.c ****   {
 1280              		.loc 1 578 0 discriminator 3
 1281 01a8 1431     		adds	r1, r1, #20
 1282 01aa 8B42     		cmp	r3, r1
 1283 01ac 0FD0     		beq	.L143
 578:./Drivers_V1.0.4/STM32F1xx_HAL_Driver/Src/stm32f1xx_hal_dma.c ****   {
 1284              		.loc 1 578 0 discriminator 5
 1285 01ae 1431     		adds	r1, r1, #20
 1286 01b0 8B42     		cmp	r3, r1
 1287 01b2 0FD0     		beq	.L144
 578:./Drivers_V1.0.4/STM32F1xx_HAL_Driver/Src/stm32f1xx_hal_dma.c ****   {
 1288              		.loc 1 578 0 discriminator 7
 1289 01b4 1431     		adds	r1, r1, #20
 1290 01b6 8B42     		cmp	r3, r1
 1291 01b8 0FD0     		beq	.L145
 578:./Drivers_V1.0.4/STM32F1xx_HAL_Driver/Src/stm32f1xx_hal_dma.c ****   {
 1292              		.loc 1 578 0 discriminator 9
 1293 01ba 1431     		adds	r1, r1, #20
 1294 01bc 8B42     		cmp	r3, r1
 1295 01be 0FD1     		bne	.L146
 578:./Drivers_V1.0.4/STM32F1xx_HAL_Driver/Src/stm32f1xx_hal_dma.c ****   {
 1296              		.loc 1 578 0
 1297 01c0 4FF40011 		mov	r1, #2097152
 1298 01c4 0EE0     		b	.L113
 1299              	.L141:
 1300 01c6 0221     		movs	r1, #2
 1301 01c8 0CE0     		b	.L113
 1302              	.L142:
 1303 01ca 2021     		movs	r1, #32
 1304 01cc 0AE0     		b	.L113
 1305              	.L143:
 1306 01ce 4FF40071 		mov	r1, #512
 1307 01d2 07E0     		b	.L113
 1308              	.L144:
 1309 01d4 4FF40051 		mov	r1, #8192
 1310 01d8 04E0     		b	.L113
 1311              	.L145:
 1312 01da 4FF40031 		mov	r1, #131072
 1313 01de 01E0     		b	.L113
 1314              	.L146:
 1315 01e0 4FF00071 		mov	r1, #33554432
 1316              	.L113:
 578:./Drivers_V1.0.4/STM32F1xx_HAL_Driver/Src/stm32f1xx_hal_dma.c ****   {
 1317              		.loc 1 578 0 discriminator 24
 1318 01e4 1142     		tst	r1, r2
 1319 01e6 3ED0     		beq	.L105
 580:./Drivers_V1.0.4/STM32F1xx_HAL_Driver/Src/stm32f1xx_hal_dma.c ****     {
 1320              		.loc 1 580 0 is_stmt 1
ARM GAS  /var/folders/jn/652hmfdj2m99syhs9p34dk640000gq/T//ccGWydQU.s 			page 40


 1321 01e8 1A68     		ldr	r2, [r3]
 1322 01ea 12F0020F 		tst	r2, #2
 1323 01ee 3AD0     		beq	.L105
 582:./Drivers_V1.0.4/STM32F1xx_HAL_Driver/Src/stm32f1xx_hal_dma.c ****       {
 1324              		.loc 1 582 0
 1325 01f0 1A68     		ldr	r2, [r3]
 1326 01f2 12F0200F 		tst	r2, #32
 1327 01f6 03D1     		bne	.L115
 585:./Drivers_V1.0.4/STM32F1xx_HAL_Driver/Src/stm32f1xx_hal_dma.c ****       }
 1328              		.loc 1 585 0
 1329 01f8 1A68     		ldr	r2, [r3]
 1330 01fa 22F00202 		bic	r2, r2, #2
 1331 01fe 1A60     		str	r2, [r3]
 1332              	.L115:
 588:./Drivers_V1.0.4/STM32F1xx_HAL_Driver/Src/stm32f1xx_hal_dma.c ****     
 1333              		.loc 1 588 0
 1334 0200 2368     		ldr	r3, [r4]
 1335 0202 1A4A     		ldr	r2, .L154+4
 1336 0204 9342     		cmp	r3, r2
 1337 0206 11D0     		beq	.L147
 588:./Drivers_V1.0.4/STM32F1xx_HAL_Driver/Src/stm32f1xx_hal_dma.c ****     
 1338              		.loc 1 588 0 is_stmt 0 discriminator 1
 1339 0208 1432     		adds	r2, r2, #20
 1340 020a 9342     		cmp	r3, r2
 1341 020c 10D0     		beq	.L148
 588:./Drivers_V1.0.4/STM32F1xx_HAL_Driver/Src/stm32f1xx_hal_dma.c ****     
 1342              		.loc 1 588 0 discriminator 3
 1343 020e 1432     		adds	r2, r2, #20
 1344 0210 9342     		cmp	r3, r2
 1345 0212 0FD0     		beq	.L149
 588:./Drivers_V1.0.4/STM32F1xx_HAL_Driver/Src/stm32f1xx_hal_dma.c ****     
 1346              		.loc 1 588 0 discriminator 5
 1347 0214 1432     		adds	r2, r2, #20
 1348 0216 9342     		cmp	r3, r2
 1349 0218 0FD0     		beq	.L150
 588:./Drivers_V1.0.4/STM32F1xx_HAL_Driver/Src/stm32f1xx_hal_dma.c ****     
 1350              		.loc 1 588 0 discriminator 7
 1351 021a 1432     		adds	r2, r2, #20
 1352 021c 9342     		cmp	r3, r2
 1353 021e 0FD0     		beq	.L151
 588:./Drivers_V1.0.4/STM32F1xx_HAL_Driver/Src/stm32f1xx_hal_dma.c ****     
 1354              		.loc 1 588 0 discriminator 9
 1355 0220 1432     		adds	r2, r2, #20
 1356 0222 9342     		cmp	r3, r2
 1357 0224 0FD1     		bne	.L152
 588:./Drivers_V1.0.4/STM32F1xx_HAL_Driver/Src/stm32f1xx_hal_dma.c ****     
 1358              		.loc 1 588 0
 1359 0226 4FF40012 		mov	r2, #2097152
 1360 022a 0EE0     		b	.L116
 1361              	.L147:
 1362 022c 0222     		movs	r2, #2
 1363 022e 0CE0     		b	.L116
 1364              	.L148:
 1365 0230 2022     		movs	r2, #32
 1366 0232 0AE0     		b	.L116
 1367              	.L149:
 1368 0234 4FF40072 		mov	r2, #512
ARM GAS  /var/folders/jn/652hmfdj2m99syhs9p34dk640000gq/T//ccGWydQU.s 			page 41


 1369 0238 07E0     		b	.L116
 1370              	.L150:
 1371 023a 4FF40052 		mov	r2, #8192
 1372 023e 04E0     		b	.L116
 1373              	.L151:
 1374 0240 4FF40032 		mov	r2, #131072
 1375 0244 01E0     		b	.L116
 1376              	.L152:
 1377 0246 4FF00072 		mov	r2, #33554432
 1378              	.L116:
 588:./Drivers_V1.0.4/STM32F1xx_HAL_Driver/Src/stm32f1xx_hal_dma.c ****     
 1379              		.loc 1 588 0 discriminator 24
 1380 024a 074B     		ldr	r3, .L154
 1381 024c 5A60     		str	r2, [r3, #4]
 591:./Drivers_V1.0.4/STM32F1xx_HAL_Driver/Src/stm32f1xx_hal_dma.c **** 
 1382              		.loc 1 591 0 is_stmt 1 discriminator 24
 1383 024e 636B     		ldr	r3, [r4, #52]
 1384 0250 6363     		str	r3, [r4, #52]
 594:./Drivers_V1.0.4/STM32F1xx_HAL_Driver/Src/stm32f1xx_hal_dma.c ****     
 1385              		.loc 1 594 0 discriminator 24
 1386 0252 0123     		movs	r3, #1
 1387 0254 84F82130 		strb	r3, [r4, #33]
 597:./Drivers_V1.0.4/STM32F1xx_HAL_Driver/Src/stm32f1xx_hal_dma.c ****     
 1388              		.loc 1 597 0 discriminator 24
 1389 0258 0023     		movs	r3, #0
 1390 025a 84F82030 		strb	r3, [r4, #32]
 599:./Drivers_V1.0.4/STM32F1xx_HAL_Driver/Src/stm32f1xx_hal_dma.c ****       {       
 1391              		.loc 1 599 0 discriminator 24
 1392 025e A36A     		ldr	r3, [r4, #40]
 1393 0260 0BB1     		cbz	r3, .L105
 602:./Drivers_V1.0.4/STM32F1xx_HAL_Driver/Src/stm32f1xx_hal_dma.c ****       }
 1394              		.loc 1 602 0
 1395 0262 2046     		mov	r0, r4
 1396 0264 9847     		blx	r3
 1397              	.LVL54:
 1398              	.L105:
 1399 0266 10BD     		pop	{r4, pc}
 1400              	.LVL55:
 1401              	.L155:
 1402              		.align	2
 1403              	.L154:
 1404 0268 00000240 		.word	1073872896
 1405 026c 08000240 		.word	1073872904
 1406              		.cfi_endproc
 1407              	.LFE70:
 1409              		.section	.text.HAL_DMA_GetState,"ax",%progbits
 1410              		.align	2
 1411              		.global	HAL_DMA_GetState
 1412              		.thumb
 1413              		.thumb_func
 1415              	HAL_DMA_GetState:
 1416              	.LFB71:
 635:./Drivers_V1.0.4/STM32F1xx_HAL_Driver/Src/stm32f1xx_hal_dma.c ****   return hdma->State;
 1417              		.loc 1 635 0
 1418              		.cfi_startproc
 1419              		@ args = 0, pretend = 0, frame = 0
 1420              		@ frame_needed = 0, uses_anonymous_args = 0
ARM GAS  /var/folders/jn/652hmfdj2m99syhs9p34dk640000gq/T//ccGWydQU.s 			page 42


 1421              		@ link register save eliminated.
 1422              	.LVL56:
 637:./Drivers_V1.0.4/STM32F1xx_HAL_Driver/Src/stm32f1xx_hal_dma.c **** 
 1423              		.loc 1 637 0
 1424 0000 90F82100 		ldrb	r0, [r0, #33]	@ zero_extendqisi2
 1425              	.LVL57:
 1426 0004 7047     		bx	lr
 1427              		.cfi_endproc
 1428              	.LFE71:
 1430 0006 00BF     		.section	.text.HAL_DMA_GetError,"ax",%progbits
 1431              		.align	2
 1432              		.global	HAL_DMA_GetError
 1433              		.thumb
 1434              		.thumb_func
 1436              	HAL_DMA_GetError:
 1437              	.LFB72:
 646:./Drivers_V1.0.4/STM32F1xx_HAL_Driver/Src/stm32f1xx_hal_dma.c ****   return hdma->ErrorCode;
 1438              		.loc 1 646 0
 1439              		.cfi_startproc
 1440              		@ args = 0, pretend = 0, frame = 0
 1441              		@ frame_needed = 0, uses_anonymous_args = 0
 1442              		@ link register save eliminated.
 1443              	.LVL58:
 647:./Drivers_V1.0.4/STM32F1xx_HAL_Driver/Src/stm32f1xx_hal_dma.c **** }
 1444              		.loc 1 647 0
 1445 0000 406B     		ldr	r0, [r0, #52]
 1446              	.LVL59:
 648:./Drivers_V1.0.4/STM32F1xx_HAL_Driver/Src/stm32f1xx_hal_dma.c **** 
 1447              		.loc 1 648 0
 1448 0002 7047     		bx	lr
 1449              		.cfi_endproc
 1450              	.LFE72:
 1452              		.text
 1453              	.Letext0:
 1454              		.file 2 "/usr/local/Cellar/gcc-arm-none-eabi/20160928/arm-none-eabi/include/machine/_default_types
 1455              		.file 3 "/usr/local/Cellar/gcc-arm-none-eabi/20160928/arm-none-eabi/include/sys/_stdint.h"
 1456              		.file 4 "./Drivers_V1.0.4/CMSIS/Device/ST/STM32F1xx/Include/stm32f103xb.h"
 1457              		.file 5 "./Drivers_V1.0.4/CMSIS/Device/ST/STM32F1xx/Include/stm32f1xx.h"
 1458              		.file 6 "./Drivers_V1.0.4/STM32F1xx_HAL_Driver/Inc/stm32f1xx_hal_def.h"
 1459              		.file 7 "./Drivers_V1.0.4/STM32F1xx_HAL_Driver/Inc/stm32f1xx_hal_dma.h"
 1460              		.file 8 "./Drivers_V1.0.4/CMSIS/Include/core_cm3.h"
 1461              		.file 9 "./Drivers_V1.0.4/STM32F1xx_HAL_Driver/Inc/stm32f1xx_hal.h"
ARM GAS  /var/folders/jn/652hmfdj2m99syhs9p34dk640000gq/T//ccGWydQU.s 			page 43

