ARM GAS  /var/folders/jn/652hmfdj2m99syhs9p34dk640000gq/T//ccYoQe7e.s 			page 1


   1              		.syntax unified
   2              		.cpu cortex-m3
   3              		.fpu softvfp
   4              		.eabi_attribute 20, 1
   5              		.eabi_attribute 21, 1
   6              		.eabi_attribute 23, 3
   7              		.eabi_attribute 24, 1
   8              		.eabi_attribute 25, 1
   9              		.eabi_attribute 26, 1
  10              		.eabi_attribute 30, 1
  11              		.eabi_attribute 34, 1
  12              		.eabi_attribute 18, 4
  13              		.thumb
  14              		.syntax unified
  15              		.file	"stm32f1xx_hal_gpio.c"
  16              		.text
  17              	.Ltext0:
  18              		.cfi_sections	.debug_frame
  19              		.section	.text.HAL_GPIO_Init,"ax",%progbits
  20              		.align	2
  21              		.global	HAL_GPIO_Init
  22              		.thumb
  23              		.thumb_func
  25              	HAL_GPIO_Init:
  26              	.LFB64:
  27              		.file 1 "./Drivers_V1.0.4/STM32F1xx_HAL_Driver/Src/stm32f1xx_hal_gpio.c"
   1:./Drivers_V1.0.4/STM32F1xx_HAL_Driver/Src/stm32f1xx_hal_gpio.c **** /**
   2:./Drivers_V1.0.4/STM32F1xx_HAL_Driver/Src/stm32f1xx_hal_gpio.c ****   ******************************************************************************
   3:./Drivers_V1.0.4/STM32F1xx_HAL_Driver/Src/stm32f1xx_hal_gpio.c ****   * @file    stm32f1xx_hal_gpio.c
   4:./Drivers_V1.0.4/STM32F1xx_HAL_Driver/Src/stm32f1xx_hal_gpio.c ****   * @author  MCD Application Team
   5:./Drivers_V1.0.4/STM32F1xx_HAL_Driver/Src/stm32f1xx_hal_gpio.c ****   * @version V1.0.4
   6:./Drivers_V1.0.4/STM32F1xx_HAL_Driver/Src/stm32f1xx_hal_gpio.c ****   * @date    29-April-2016
   7:./Drivers_V1.0.4/STM32F1xx_HAL_Driver/Src/stm32f1xx_hal_gpio.c ****   * @brief   GPIO HAL module driver.
   8:./Drivers_V1.0.4/STM32F1xx_HAL_Driver/Src/stm32f1xx_hal_gpio.c ****   *         This file provides firmware functions to manage the following 
   9:./Drivers_V1.0.4/STM32F1xx_HAL_Driver/Src/stm32f1xx_hal_gpio.c ****   *          functionalities of the General Purpose Input/Output (GPIO) peripheral:
  10:./Drivers_V1.0.4/STM32F1xx_HAL_Driver/Src/stm32f1xx_hal_gpio.c ****   *           + Initialization and de-initialization functions
  11:./Drivers_V1.0.4/STM32F1xx_HAL_Driver/Src/stm32f1xx_hal_gpio.c ****   *           + IO operation functions
  12:./Drivers_V1.0.4/STM32F1xx_HAL_Driver/Src/stm32f1xx_hal_gpio.c ****   *         
  13:./Drivers_V1.0.4/STM32F1xx_HAL_Driver/Src/stm32f1xx_hal_gpio.c ****   @verbatim
  14:./Drivers_V1.0.4/STM32F1xx_HAL_Driver/Src/stm32f1xx_hal_gpio.c ****   ==============================================================================
  15:./Drivers_V1.0.4/STM32F1xx_HAL_Driver/Src/stm32f1xx_hal_gpio.c ****                     ##### GPIO Peripheral features #####
  16:./Drivers_V1.0.4/STM32F1xx_HAL_Driver/Src/stm32f1xx_hal_gpio.c ****   ==============================================================================         
  17:./Drivers_V1.0.4/STM32F1xx_HAL_Driver/Src/stm32f1xx_hal_gpio.c ****   [..] 
  18:./Drivers_V1.0.4/STM32F1xx_HAL_Driver/Src/stm32f1xx_hal_gpio.c ****   Subject to the specific hardware characteristics of each I/O port listed in the datasheet, each
  19:./Drivers_V1.0.4/STM32F1xx_HAL_Driver/Src/stm32f1xx_hal_gpio.c ****   port bit of the General Purpose IO (GPIO) Ports, can be individually configured by software
  20:./Drivers_V1.0.4/STM32F1xx_HAL_Driver/Src/stm32f1xx_hal_gpio.c ****   in several modes:
  21:./Drivers_V1.0.4/STM32F1xx_HAL_Driver/Src/stm32f1xx_hal_gpio.c ****   (+) Input mode 
  22:./Drivers_V1.0.4/STM32F1xx_HAL_Driver/Src/stm32f1xx_hal_gpio.c ****   (+) Analog mode
  23:./Drivers_V1.0.4/STM32F1xx_HAL_Driver/Src/stm32f1xx_hal_gpio.c ****   (+) Output mode
  24:./Drivers_V1.0.4/STM32F1xx_HAL_Driver/Src/stm32f1xx_hal_gpio.c ****   (+) Alternate function mode
  25:./Drivers_V1.0.4/STM32F1xx_HAL_Driver/Src/stm32f1xx_hal_gpio.c ****   (+) External interrupt/event lines
  26:./Drivers_V1.0.4/STM32F1xx_HAL_Driver/Src/stm32f1xx_hal_gpio.c **** 
  27:./Drivers_V1.0.4/STM32F1xx_HAL_Driver/Src/stm32f1xx_hal_gpio.c ****   [..]  
  28:./Drivers_V1.0.4/STM32F1xx_HAL_Driver/Src/stm32f1xx_hal_gpio.c ****   During and just after reset, the alternate functions and external interrupt  
  29:./Drivers_V1.0.4/STM32F1xx_HAL_Driver/Src/stm32f1xx_hal_gpio.c ****   lines are not active and the I/O ports are configured in input floating mode.
  30:./Drivers_V1.0.4/STM32F1xx_HAL_Driver/Src/stm32f1xx_hal_gpio.c ****   
  31:./Drivers_V1.0.4/STM32F1xx_HAL_Driver/Src/stm32f1xx_hal_gpio.c ****   [..]   
ARM GAS  /var/folders/jn/652hmfdj2m99syhs9p34dk640000gq/T//ccYoQe7e.s 			page 2


  32:./Drivers_V1.0.4/STM32F1xx_HAL_Driver/Src/stm32f1xx_hal_gpio.c ****   All GPIO pins have weak internal pull-up and pull-down resistors, which can be 
  33:./Drivers_V1.0.4/STM32F1xx_HAL_Driver/Src/stm32f1xx_hal_gpio.c ****   activated or not.
  34:./Drivers_V1.0.4/STM32F1xx_HAL_Driver/Src/stm32f1xx_hal_gpio.c **** 
  35:./Drivers_V1.0.4/STM32F1xx_HAL_Driver/Src/stm32f1xx_hal_gpio.c ****   [..]
  36:./Drivers_V1.0.4/STM32F1xx_HAL_Driver/Src/stm32f1xx_hal_gpio.c ****   In Output or Alternate mode, each IO can be configured on open-drain or push-pull
  37:./Drivers_V1.0.4/STM32F1xx_HAL_Driver/Src/stm32f1xx_hal_gpio.c ****   type and the IO speed can be selected depending on the VDD value.
  38:./Drivers_V1.0.4/STM32F1xx_HAL_Driver/Src/stm32f1xx_hal_gpio.c **** 
  39:./Drivers_V1.0.4/STM32F1xx_HAL_Driver/Src/stm32f1xx_hal_gpio.c ****   [..]  
  40:./Drivers_V1.0.4/STM32F1xx_HAL_Driver/Src/stm32f1xx_hal_gpio.c ****   All ports have external interrupt/event capability. To use external interrupt 
  41:./Drivers_V1.0.4/STM32F1xx_HAL_Driver/Src/stm32f1xx_hal_gpio.c ****   lines, the port must be configured in input mode. All available GPIO pins are 
  42:./Drivers_V1.0.4/STM32F1xx_HAL_Driver/Src/stm32f1xx_hal_gpio.c ****   connected to the 16 external interrupt/event lines from EXTI0 to EXTI15.
  43:./Drivers_V1.0.4/STM32F1xx_HAL_Driver/Src/stm32f1xx_hal_gpio.c ****   
  44:./Drivers_V1.0.4/STM32F1xx_HAL_Driver/Src/stm32f1xx_hal_gpio.c ****   [..]  
  45:./Drivers_V1.0.4/STM32F1xx_HAL_Driver/Src/stm32f1xx_hal_gpio.c ****   The external interrupt/event controller consists of up to 20 edge detectors in connectivity
  46:./Drivers_V1.0.4/STM32F1xx_HAL_Driver/Src/stm32f1xx_hal_gpio.c ****   line devices, or 19 edge detectors in other devices for generating event/interrupt requests.
  47:./Drivers_V1.0.4/STM32F1xx_HAL_Driver/Src/stm32f1xx_hal_gpio.c ****   Each input line can be independently configured to select the type (event or interrupt) and
  48:./Drivers_V1.0.4/STM32F1xx_HAL_Driver/Src/stm32f1xx_hal_gpio.c ****   the corresponding trigger event (rising or falling or both). Each line can also masked
  49:./Drivers_V1.0.4/STM32F1xx_HAL_Driver/Src/stm32f1xx_hal_gpio.c ****   independently. A pending register maintains the status line of the interrupt requests
  50:./Drivers_V1.0.4/STM32F1xx_HAL_Driver/Src/stm32f1xx_hal_gpio.c ****  
  51:./Drivers_V1.0.4/STM32F1xx_HAL_Driver/Src/stm32f1xx_hal_gpio.c ****                      ##### How to use this driver #####
  52:./Drivers_V1.0.4/STM32F1xx_HAL_Driver/Src/stm32f1xx_hal_gpio.c ****   ==============================================================================  
  53:./Drivers_V1.0.4/STM32F1xx_HAL_Driver/Src/stm32f1xx_hal_gpio.c ****  [..]             
  54:./Drivers_V1.0.4/STM32F1xx_HAL_Driver/Src/stm32f1xx_hal_gpio.c ****    (#) Enable the GPIO APB2 clock using the following function : __HAL_RCC_GPIOx_CLK_ENABLE(). 
  55:./Drivers_V1.0.4/STM32F1xx_HAL_Driver/Src/stm32f1xx_hal_gpio.c ****    
  56:./Drivers_V1.0.4/STM32F1xx_HAL_Driver/Src/stm32f1xx_hal_gpio.c ****    (#) Configure the GPIO pin(s) using HAL_GPIO_Init().
  57:./Drivers_V1.0.4/STM32F1xx_HAL_Driver/Src/stm32f1xx_hal_gpio.c ****        (++) Configure the IO mode using "Mode" member from GPIO_InitTypeDef structure
  58:./Drivers_V1.0.4/STM32F1xx_HAL_Driver/Src/stm32f1xx_hal_gpio.c ****        (++) Activate Pull-up, Pull-down resistor using "Pull" member from GPIO_InitTypeDef 
  59:./Drivers_V1.0.4/STM32F1xx_HAL_Driver/Src/stm32f1xx_hal_gpio.c ****             structure.
  60:./Drivers_V1.0.4/STM32F1xx_HAL_Driver/Src/stm32f1xx_hal_gpio.c ****        (++) In case of Output or alternate function mode selection: the speed is 
  61:./Drivers_V1.0.4/STM32F1xx_HAL_Driver/Src/stm32f1xx_hal_gpio.c ****             configured through "Speed" member from GPIO_InitTypeDef structure
  62:./Drivers_V1.0.4/STM32F1xx_HAL_Driver/Src/stm32f1xx_hal_gpio.c ****        (++) Analog mode is required when a pin is to be used as ADC channel 
  63:./Drivers_V1.0.4/STM32F1xx_HAL_Driver/Src/stm32f1xx_hal_gpio.c ****             or DAC output.
  64:./Drivers_V1.0.4/STM32F1xx_HAL_Driver/Src/stm32f1xx_hal_gpio.c ****        (++) In case of external interrupt/event selection the "Mode" member from 
  65:./Drivers_V1.0.4/STM32F1xx_HAL_Driver/Src/stm32f1xx_hal_gpio.c ****             GPIO_InitTypeDef structure select the type (interrupt or event) and 
  66:./Drivers_V1.0.4/STM32F1xx_HAL_Driver/Src/stm32f1xx_hal_gpio.c ****             the corresponding trigger event (rising or falling or both).
  67:./Drivers_V1.0.4/STM32F1xx_HAL_Driver/Src/stm32f1xx_hal_gpio.c ****    
  68:./Drivers_V1.0.4/STM32F1xx_HAL_Driver/Src/stm32f1xx_hal_gpio.c ****    (#) In case of external interrupt/event mode selection, configure NVIC IRQ priority 
  69:./Drivers_V1.0.4/STM32F1xx_HAL_Driver/Src/stm32f1xx_hal_gpio.c ****        mapped to the EXTI line using HAL_NVIC_SetPriority() and enable it using
  70:./Drivers_V1.0.4/STM32F1xx_HAL_Driver/Src/stm32f1xx_hal_gpio.c ****        HAL_NVIC_EnableIRQ().
  71:./Drivers_V1.0.4/STM32F1xx_HAL_Driver/Src/stm32f1xx_hal_gpio.c ****          
  72:./Drivers_V1.0.4/STM32F1xx_HAL_Driver/Src/stm32f1xx_hal_gpio.c ****    (#) To get the level of a pin configured in input mode use HAL_GPIO_ReadPin().
  73:./Drivers_V1.0.4/STM32F1xx_HAL_Driver/Src/stm32f1xx_hal_gpio.c ****             
  74:./Drivers_V1.0.4/STM32F1xx_HAL_Driver/Src/stm32f1xx_hal_gpio.c ****    (#) To set/reset the level of a pin configured in output mode use 
  75:./Drivers_V1.0.4/STM32F1xx_HAL_Driver/Src/stm32f1xx_hal_gpio.c ****        HAL_GPIO_WritePin()/HAL_GPIO_TogglePin().
  76:./Drivers_V1.0.4/STM32F1xx_HAL_Driver/Src/stm32f1xx_hal_gpio.c ****   
  77:./Drivers_V1.0.4/STM32F1xx_HAL_Driver/Src/stm32f1xx_hal_gpio.c ****    (#) To lock pin configuration until next reset use HAL_GPIO_LockPin().
  78:./Drivers_V1.0.4/STM32F1xx_HAL_Driver/Src/stm32f1xx_hal_gpio.c ****                  
  79:./Drivers_V1.0.4/STM32F1xx_HAL_Driver/Src/stm32f1xx_hal_gpio.c ****    (#) During and just after reset, the alternate functions are not 
  80:./Drivers_V1.0.4/STM32F1xx_HAL_Driver/Src/stm32f1xx_hal_gpio.c ****        active and the GPIO pins are configured in input floating mode (except JTAG
  81:./Drivers_V1.0.4/STM32F1xx_HAL_Driver/Src/stm32f1xx_hal_gpio.c ****        pins).
  82:./Drivers_V1.0.4/STM32F1xx_HAL_Driver/Src/stm32f1xx_hal_gpio.c ****   
  83:./Drivers_V1.0.4/STM32F1xx_HAL_Driver/Src/stm32f1xx_hal_gpio.c ****    (#) The LSE oscillator pins OSC32_IN and OSC32_OUT can be used as general purpose 
  84:./Drivers_V1.0.4/STM32F1xx_HAL_Driver/Src/stm32f1xx_hal_gpio.c ****        (PC14 and PC15, respectively) when the LSE oscillator is off. The LSE has 
  85:./Drivers_V1.0.4/STM32F1xx_HAL_Driver/Src/stm32f1xx_hal_gpio.c ****        priority over the GPIO function.
  86:./Drivers_V1.0.4/STM32F1xx_HAL_Driver/Src/stm32f1xx_hal_gpio.c ****   
  87:./Drivers_V1.0.4/STM32F1xx_HAL_Driver/Src/stm32f1xx_hal_gpio.c ****    (#) The HSE oscillator pins OSC_IN/OSC_OUT can be used as 
  88:./Drivers_V1.0.4/STM32F1xx_HAL_Driver/Src/stm32f1xx_hal_gpio.c ****        general purpose PD0 and PD1, respectively, when the HSE oscillator is off. 
ARM GAS  /var/folders/jn/652hmfdj2m99syhs9p34dk640000gq/T//ccYoQe7e.s 			page 3


  89:./Drivers_V1.0.4/STM32F1xx_HAL_Driver/Src/stm32f1xx_hal_gpio.c ****        The HSE has priority over the GPIO function.
  90:./Drivers_V1.0.4/STM32F1xx_HAL_Driver/Src/stm32f1xx_hal_gpio.c ****   
  91:./Drivers_V1.0.4/STM32F1xx_HAL_Driver/Src/stm32f1xx_hal_gpio.c ****   @endverbatim
  92:./Drivers_V1.0.4/STM32F1xx_HAL_Driver/Src/stm32f1xx_hal_gpio.c ****   ******************************************************************************
  93:./Drivers_V1.0.4/STM32F1xx_HAL_Driver/Src/stm32f1xx_hal_gpio.c ****   * @attention
  94:./Drivers_V1.0.4/STM32F1xx_HAL_Driver/Src/stm32f1xx_hal_gpio.c ****   *
  95:./Drivers_V1.0.4/STM32F1xx_HAL_Driver/Src/stm32f1xx_hal_gpio.c ****   * <h2><center>&copy; COPYRIGHT(c) 2016 STMicroelectronics</center></h2>
  96:./Drivers_V1.0.4/STM32F1xx_HAL_Driver/Src/stm32f1xx_hal_gpio.c ****   *
  97:./Drivers_V1.0.4/STM32F1xx_HAL_Driver/Src/stm32f1xx_hal_gpio.c ****   * Redistribution and use in source and binary forms, with or without modification,
  98:./Drivers_V1.0.4/STM32F1xx_HAL_Driver/Src/stm32f1xx_hal_gpio.c ****   * are permitted provided that the following conditions are met:
  99:./Drivers_V1.0.4/STM32F1xx_HAL_Driver/Src/stm32f1xx_hal_gpio.c ****   *   1. Redistributions of source code must retain the above copyright notice,
 100:./Drivers_V1.0.4/STM32F1xx_HAL_Driver/Src/stm32f1xx_hal_gpio.c ****   *      this list of conditions and the following disclaimer.
 101:./Drivers_V1.0.4/STM32F1xx_HAL_Driver/Src/stm32f1xx_hal_gpio.c ****   *   2. Redistributions in binary form must reproduce the above copyright notice,
 102:./Drivers_V1.0.4/STM32F1xx_HAL_Driver/Src/stm32f1xx_hal_gpio.c ****   *      this list of conditions and the following disclaimer in the documentation
 103:./Drivers_V1.0.4/STM32F1xx_HAL_Driver/Src/stm32f1xx_hal_gpio.c ****   *      and/or other materials provided with the distribution.
 104:./Drivers_V1.0.4/STM32F1xx_HAL_Driver/Src/stm32f1xx_hal_gpio.c ****   *   3. Neither the name of STMicroelectronics nor the names of its contributors
 105:./Drivers_V1.0.4/STM32F1xx_HAL_Driver/Src/stm32f1xx_hal_gpio.c ****   *      may be used to endorse or promote products derived from this software
 106:./Drivers_V1.0.4/STM32F1xx_HAL_Driver/Src/stm32f1xx_hal_gpio.c ****   *      without specific prior written permission.
 107:./Drivers_V1.0.4/STM32F1xx_HAL_Driver/Src/stm32f1xx_hal_gpio.c ****   *
 108:./Drivers_V1.0.4/STM32F1xx_HAL_Driver/Src/stm32f1xx_hal_gpio.c ****   * THIS SOFTWARE IS PROVIDED BY THE COPYRIGHT HOLDERS AND CONTRIBUTORS "AS IS"
 109:./Drivers_V1.0.4/STM32F1xx_HAL_Driver/Src/stm32f1xx_hal_gpio.c ****   * AND ANY EXPRESS OR IMPLIED WARRANTIES, INCLUDING, BUT NOT LIMITED TO, THE
 110:./Drivers_V1.0.4/STM32F1xx_HAL_Driver/Src/stm32f1xx_hal_gpio.c ****   * IMPLIED WARRANTIES OF MERCHANTABILITY AND FITNESS FOR A PARTICULAR PURPOSE ARE
 111:./Drivers_V1.0.4/STM32F1xx_HAL_Driver/Src/stm32f1xx_hal_gpio.c ****   * DISCLAIMED. IN NO EVENT SHALL THE COPYRIGHT HOLDER OR CONTRIBUTORS BE LIABLE
 112:./Drivers_V1.0.4/STM32F1xx_HAL_Driver/Src/stm32f1xx_hal_gpio.c ****   * FOR ANY DIRECT, INDIRECT, INCIDENTAL, SPECIAL, EXEMPLARY, OR CONSEQUENTIAL
 113:./Drivers_V1.0.4/STM32F1xx_HAL_Driver/Src/stm32f1xx_hal_gpio.c ****   * DAMAGES (INCLUDING, BUT NOT LIMITED TO, PROCUREMENT OF SUBSTITUTE GOODS OR
 114:./Drivers_V1.0.4/STM32F1xx_HAL_Driver/Src/stm32f1xx_hal_gpio.c ****   * SERVICES; LOSS OF USE, DATA, OR PROFITS; OR BUSINESS INTERRUPTION) HOWEVER
 115:./Drivers_V1.0.4/STM32F1xx_HAL_Driver/Src/stm32f1xx_hal_gpio.c ****   * CAUSED AND ON ANY THEORY OF LIABILITY, WHETHER IN CONTRACT, STRICT LIABILITY,
 116:./Drivers_V1.0.4/STM32F1xx_HAL_Driver/Src/stm32f1xx_hal_gpio.c ****   * OR TORT (INCLUDING NEGLIGENCE OR OTHERWISE) ARISING IN ANY WAY OUT OF THE USE
 117:./Drivers_V1.0.4/STM32F1xx_HAL_Driver/Src/stm32f1xx_hal_gpio.c ****   * OF THIS SOFTWARE, EVEN IF ADVISED OF THE POSSIBILITY OF SUCH DAMAGE.
 118:./Drivers_V1.0.4/STM32F1xx_HAL_Driver/Src/stm32f1xx_hal_gpio.c ****   *
 119:./Drivers_V1.0.4/STM32F1xx_HAL_Driver/Src/stm32f1xx_hal_gpio.c ****   ******************************************************************************  
 120:./Drivers_V1.0.4/STM32F1xx_HAL_Driver/Src/stm32f1xx_hal_gpio.c ****   */ 
 121:./Drivers_V1.0.4/STM32F1xx_HAL_Driver/Src/stm32f1xx_hal_gpio.c **** 
 122:./Drivers_V1.0.4/STM32F1xx_HAL_Driver/Src/stm32f1xx_hal_gpio.c **** /* Includes ------------------------------------------------------------------*/
 123:./Drivers_V1.0.4/STM32F1xx_HAL_Driver/Src/stm32f1xx_hal_gpio.c **** #include "stm32f1xx_hal.h"
 124:./Drivers_V1.0.4/STM32F1xx_HAL_Driver/Src/stm32f1xx_hal_gpio.c **** 
 125:./Drivers_V1.0.4/STM32F1xx_HAL_Driver/Src/stm32f1xx_hal_gpio.c **** /** @addtogroup STM32F1xx_HAL_Driver
 126:./Drivers_V1.0.4/STM32F1xx_HAL_Driver/Src/stm32f1xx_hal_gpio.c ****   * @{
 127:./Drivers_V1.0.4/STM32F1xx_HAL_Driver/Src/stm32f1xx_hal_gpio.c ****   */
 128:./Drivers_V1.0.4/STM32F1xx_HAL_Driver/Src/stm32f1xx_hal_gpio.c **** 
 129:./Drivers_V1.0.4/STM32F1xx_HAL_Driver/Src/stm32f1xx_hal_gpio.c **** /** @defgroup GPIO GPIO
 130:./Drivers_V1.0.4/STM32F1xx_HAL_Driver/Src/stm32f1xx_hal_gpio.c ****   * @brief GPIO HAL module driver
 131:./Drivers_V1.0.4/STM32F1xx_HAL_Driver/Src/stm32f1xx_hal_gpio.c ****   * @{
 132:./Drivers_V1.0.4/STM32F1xx_HAL_Driver/Src/stm32f1xx_hal_gpio.c ****   */
 133:./Drivers_V1.0.4/STM32F1xx_HAL_Driver/Src/stm32f1xx_hal_gpio.c **** 
 134:./Drivers_V1.0.4/STM32F1xx_HAL_Driver/Src/stm32f1xx_hal_gpio.c **** #ifdef HAL_GPIO_MODULE_ENABLED
 135:./Drivers_V1.0.4/STM32F1xx_HAL_Driver/Src/stm32f1xx_hal_gpio.c **** 
 136:./Drivers_V1.0.4/STM32F1xx_HAL_Driver/Src/stm32f1xx_hal_gpio.c **** /* Private typedef -----------------------------------------------------------*/
 137:./Drivers_V1.0.4/STM32F1xx_HAL_Driver/Src/stm32f1xx_hal_gpio.c **** /* Private define ------------------------------------------------------------*/
 138:./Drivers_V1.0.4/STM32F1xx_HAL_Driver/Src/stm32f1xx_hal_gpio.c **** /** @defgroup GPIO_Private_Constants GPIO Private Constants
 139:./Drivers_V1.0.4/STM32F1xx_HAL_Driver/Src/stm32f1xx_hal_gpio.c ****   * @{
 140:./Drivers_V1.0.4/STM32F1xx_HAL_Driver/Src/stm32f1xx_hal_gpio.c ****   */
 141:./Drivers_V1.0.4/STM32F1xx_HAL_Driver/Src/stm32f1xx_hal_gpio.c ****   
 142:./Drivers_V1.0.4/STM32F1xx_HAL_Driver/Src/stm32f1xx_hal_gpio.c **** #define GPIO_MODE             ((uint32_t)0x00000003)
 143:./Drivers_V1.0.4/STM32F1xx_HAL_Driver/Src/stm32f1xx_hal_gpio.c **** #define EXTI_MODE             ((uint32_t)0x10000000)
 144:./Drivers_V1.0.4/STM32F1xx_HAL_Driver/Src/stm32f1xx_hal_gpio.c **** #define GPIO_MODE_IT          ((uint32_t)0x00010000)
 145:./Drivers_V1.0.4/STM32F1xx_HAL_Driver/Src/stm32f1xx_hal_gpio.c **** #define GPIO_MODE_EVT         ((uint32_t)0x00020000)
ARM GAS  /var/folders/jn/652hmfdj2m99syhs9p34dk640000gq/T//ccYoQe7e.s 			page 4


 146:./Drivers_V1.0.4/STM32F1xx_HAL_Driver/Src/stm32f1xx_hal_gpio.c **** #define RISING_EDGE           ((uint32_t)0x00100000) 
 147:./Drivers_V1.0.4/STM32F1xx_HAL_Driver/Src/stm32f1xx_hal_gpio.c **** #define FALLING_EDGE          ((uint32_t)0x00200000) 
 148:./Drivers_V1.0.4/STM32F1xx_HAL_Driver/Src/stm32f1xx_hal_gpio.c **** #define GPIO_OUTPUT_TYPE      ((uint32_t)0x00000010) 
 149:./Drivers_V1.0.4/STM32F1xx_HAL_Driver/Src/stm32f1xx_hal_gpio.c **** #define GPIO_NUMBER           ((uint32_t)16)
 150:./Drivers_V1.0.4/STM32F1xx_HAL_Driver/Src/stm32f1xx_hal_gpio.c **** 
 151:./Drivers_V1.0.4/STM32F1xx_HAL_Driver/Src/stm32f1xx_hal_gpio.c **** /* Definitions for bit manipulation of CRL and CRH register */
 152:./Drivers_V1.0.4/STM32F1xx_HAL_Driver/Src/stm32f1xx_hal_gpio.c **** #define  GPIO_CR_MODE_INPUT         ((uint32_t)0x00000000) /*!< 00: Input mode (reset state)  */
 153:./Drivers_V1.0.4/STM32F1xx_HAL_Driver/Src/stm32f1xx_hal_gpio.c **** #define  GPIO_CR_CNF_ANALOG         ((uint32_t)0x00000000) /*!< 00: Analog mode  */
 154:./Drivers_V1.0.4/STM32F1xx_HAL_Driver/Src/stm32f1xx_hal_gpio.c **** #define  GPIO_CR_CNF_INPUT_FLOATING ((uint32_t)0x00000004) /*!< 01: Floating input (reset state)  *
 155:./Drivers_V1.0.4/STM32F1xx_HAL_Driver/Src/stm32f1xx_hal_gpio.c **** #define  GPIO_CR_CNF_INPUT_PU_PD    ((uint32_t)0x00000008) /*!< 10: Input with pull-up / pull-down 
 156:./Drivers_V1.0.4/STM32F1xx_HAL_Driver/Src/stm32f1xx_hal_gpio.c **** #define  GPIO_CR_CNF_GP_OUTPUT_PP   ((uint32_t)0x00000000) /*!< 00: General purpose output push-pul
 157:./Drivers_V1.0.4/STM32F1xx_HAL_Driver/Src/stm32f1xx_hal_gpio.c **** #define  GPIO_CR_CNF_GP_OUTPUT_OD   ((uint32_t)0x00000004) /*!< 01: General purpose output Open-dra
 158:./Drivers_V1.0.4/STM32F1xx_HAL_Driver/Src/stm32f1xx_hal_gpio.c **** #define  GPIO_CR_CNF_AF_OUTPUT_PP   ((uint32_t)0x00000008) /*!< 10: Alternate function output Push-
 159:./Drivers_V1.0.4/STM32F1xx_HAL_Driver/Src/stm32f1xx_hal_gpio.c **** #define  GPIO_CR_CNF_AF_OUTPUT_OD   ((uint32_t)0x0000000C) /*!< 11: Alternate function output Open-
 160:./Drivers_V1.0.4/STM32F1xx_HAL_Driver/Src/stm32f1xx_hal_gpio.c ****  
 161:./Drivers_V1.0.4/STM32F1xx_HAL_Driver/Src/stm32f1xx_hal_gpio.c **** /**
 162:./Drivers_V1.0.4/STM32F1xx_HAL_Driver/Src/stm32f1xx_hal_gpio.c ****   * @}
 163:./Drivers_V1.0.4/STM32F1xx_HAL_Driver/Src/stm32f1xx_hal_gpio.c ****   */
 164:./Drivers_V1.0.4/STM32F1xx_HAL_Driver/Src/stm32f1xx_hal_gpio.c **** 
 165:./Drivers_V1.0.4/STM32F1xx_HAL_Driver/Src/stm32f1xx_hal_gpio.c **** /* Private macro -------------------------------------------------------------*/
 166:./Drivers_V1.0.4/STM32F1xx_HAL_Driver/Src/stm32f1xx_hal_gpio.c **** /* Private variables ---------------------------------------------------------*/
 167:./Drivers_V1.0.4/STM32F1xx_HAL_Driver/Src/stm32f1xx_hal_gpio.c **** /* Private function prototypes -----------------------------------------------*/
 168:./Drivers_V1.0.4/STM32F1xx_HAL_Driver/Src/stm32f1xx_hal_gpio.c **** /* Private functions ---------------------------------------------------------*/
 169:./Drivers_V1.0.4/STM32F1xx_HAL_Driver/Src/stm32f1xx_hal_gpio.c **** 
 170:./Drivers_V1.0.4/STM32F1xx_HAL_Driver/Src/stm32f1xx_hal_gpio.c **** /** @defgroup GPIO_Exported_Functions GPIO Exported Functions
 171:./Drivers_V1.0.4/STM32F1xx_HAL_Driver/Src/stm32f1xx_hal_gpio.c ****   * @{
 172:./Drivers_V1.0.4/STM32F1xx_HAL_Driver/Src/stm32f1xx_hal_gpio.c ****   */
 173:./Drivers_V1.0.4/STM32F1xx_HAL_Driver/Src/stm32f1xx_hal_gpio.c **** 
 174:./Drivers_V1.0.4/STM32F1xx_HAL_Driver/Src/stm32f1xx_hal_gpio.c **** /** @defgroup GPIO_Exported_Functions_Group1 Initialization and deinitialization functions
 175:./Drivers_V1.0.4/STM32F1xx_HAL_Driver/Src/stm32f1xx_hal_gpio.c ****  *  @brief    Initialization and Configuration functions
 176:./Drivers_V1.0.4/STM32F1xx_HAL_Driver/Src/stm32f1xx_hal_gpio.c ****  *
 177:./Drivers_V1.0.4/STM32F1xx_HAL_Driver/Src/stm32f1xx_hal_gpio.c **** @verbatim    
 178:./Drivers_V1.0.4/STM32F1xx_HAL_Driver/Src/stm32f1xx_hal_gpio.c ****  ===============================================================================
 179:./Drivers_V1.0.4/STM32F1xx_HAL_Driver/Src/stm32f1xx_hal_gpio.c ****               ##### Initialization and deinitialization functions #####
 180:./Drivers_V1.0.4/STM32F1xx_HAL_Driver/Src/stm32f1xx_hal_gpio.c ****  ===============================================================================
 181:./Drivers_V1.0.4/STM32F1xx_HAL_Driver/Src/stm32f1xx_hal_gpio.c ****   [..]
 182:./Drivers_V1.0.4/STM32F1xx_HAL_Driver/Src/stm32f1xx_hal_gpio.c ****     This section provides functions allowing to initialize and de-initialize the GPIOs
 183:./Drivers_V1.0.4/STM32F1xx_HAL_Driver/Src/stm32f1xx_hal_gpio.c ****     to be ready for use.
 184:./Drivers_V1.0.4/STM32F1xx_HAL_Driver/Src/stm32f1xx_hal_gpio.c ****  
 185:./Drivers_V1.0.4/STM32F1xx_HAL_Driver/Src/stm32f1xx_hal_gpio.c **** @endverbatim
 186:./Drivers_V1.0.4/STM32F1xx_HAL_Driver/Src/stm32f1xx_hal_gpio.c ****   * @{
 187:./Drivers_V1.0.4/STM32F1xx_HAL_Driver/Src/stm32f1xx_hal_gpio.c ****   */
 188:./Drivers_V1.0.4/STM32F1xx_HAL_Driver/Src/stm32f1xx_hal_gpio.c **** 
 189:./Drivers_V1.0.4/STM32F1xx_HAL_Driver/Src/stm32f1xx_hal_gpio.c **** /**
 190:./Drivers_V1.0.4/STM32F1xx_HAL_Driver/Src/stm32f1xx_hal_gpio.c ****   * @brief  Initializes the GPIOx peripheral according to the specified parameters in the GPIO_Init
 191:./Drivers_V1.0.4/STM32F1xx_HAL_Driver/Src/stm32f1xx_hal_gpio.c ****   * @param  GPIOx: where x can be (A..G depending on device used) to select the GPIO peripheral
 192:./Drivers_V1.0.4/STM32F1xx_HAL_Driver/Src/stm32f1xx_hal_gpio.c ****   * @param  GPIO_Init: pointer to a GPIO_InitTypeDef structure that contains
 193:./Drivers_V1.0.4/STM32F1xx_HAL_Driver/Src/stm32f1xx_hal_gpio.c ****   *         the configuration information for the specified GPIO peripheral.
 194:./Drivers_V1.0.4/STM32F1xx_HAL_Driver/Src/stm32f1xx_hal_gpio.c ****   * @retval None
 195:./Drivers_V1.0.4/STM32F1xx_HAL_Driver/Src/stm32f1xx_hal_gpio.c ****   */
 196:./Drivers_V1.0.4/STM32F1xx_HAL_Driver/Src/stm32f1xx_hal_gpio.c **** void HAL_GPIO_Init(GPIO_TypeDef  *GPIOx, GPIO_InitTypeDef *GPIO_Init)
 197:./Drivers_V1.0.4/STM32F1xx_HAL_Driver/Src/stm32f1xx_hal_gpio.c **** {
  28              		.loc 1 197 0
  29              		.cfi_startproc
  30              		@ args = 0, pretend = 0, frame = 8
  31              		@ frame_needed = 0, uses_anonymous_args = 0
  32              	.LVL0:
ARM GAS  /var/folders/jn/652hmfdj2m99syhs9p34dk640000gq/T//ccYoQe7e.s 			page 5


  33 0000 F0B5     		push	{r4, r5, r6, r7, lr}
  34              	.LCFI0:
  35              		.cfi_def_cfa_offset 20
  36              		.cfi_offset 4, -20
  37              		.cfi_offset 5, -16
  38              		.cfi_offset 6, -12
  39              		.cfi_offset 7, -8
  40              		.cfi_offset 14, -4
  41 0002 83B0     		sub	sp, sp, #12
  42              	.LCFI1:
  43              		.cfi_def_cfa_offset 32
  44              	.LVL1:
 198:./Drivers_V1.0.4/STM32F1xx_HAL_Driver/Src/stm32f1xx_hal_gpio.c ****   uint32_t position;
 199:./Drivers_V1.0.4/STM32F1xx_HAL_Driver/Src/stm32f1xx_hal_gpio.c ****   uint32_t ioposition = 0x00;
 200:./Drivers_V1.0.4/STM32F1xx_HAL_Driver/Src/stm32f1xx_hal_gpio.c ****   uint32_t iocurrent = 0x00;
 201:./Drivers_V1.0.4/STM32F1xx_HAL_Driver/Src/stm32f1xx_hal_gpio.c ****   uint32_t temp = 0x00;
 202:./Drivers_V1.0.4/STM32F1xx_HAL_Driver/Src/stm32f1xx_hal_gpio.c ****   uint32_t config = 0x00;
  45              		.loc 1 202 0
  46 0004 0026     		movs	r6, #0
 203:./Drivers_V1.0.4/STM32F1xx_HAL_Driver/Src/stm32f1xx_hal_gpio.c ****   __IO uint32_t *configregister; /* Store the address of CRL or CRH register based on pin number */
 204:./Drivers_V1.0.4/STM32F1xx_HAL_Driver/Src/stm32f1xx_hal_gpio.c ****   uint32_t registeroffset = 0; /* offset used during computation of CNF and MODE bits placement ins
 205:./Drivers_V1.0.4/STM32F1xx_HAL_Driver/Src/stm32f1xx_hal_gpio.c ****   
 206:./Drivers_V1.0.4/STM32F1xx_HAL_Driver/Src/stm32f1xx_hal_gpio.c ****   /* Check the parameters */
 207:./Drivers_V1.0.4/STM32F1xx_HAL_Driver/Src/stm32f1xx_hal_gpio.c ****   assert_param(IS_GPIO_ALL_INSTANCE(GPIOx));
 208:./Drivers_V1.0.4/STM32F1xx_HAL_Driver/Src/stm32f1xx_hal_gpio.c ****   assert_param(IS_GPIO_PIN(GPIO_Init->Pin));
 209:./Drivers_V1.0.4/STM32F1xx_HAL_Driver/Src/stm32f1xx_hal_gpio.c ****   assert_param(IS_GPIO_MODE(GPIO_Init->Mode));
 210:./Drivers_V1.0.4/STM32F1xx_HAL_Driver/Src/stm32f1xx_hal_gpio.c **** 
 211:./Drivers_V1.0.4/STM32F1xx_HAL_Driver/Src/stm32f1xx_hal_gpio.c ****   /* Configure the port pins */
 212:./Drivers_V1.0.4/STM32F1xx_HAL_Driver/Src/stm32f1xx_hal_gpio.c ****   for (position = 0; position < GPIO_NUMBER; position++)
  47              		.loc 1 212 0
  48 0006 3446     		mov	r4, r6
  49 0008 D5E0     		b	.L2
  50              	.LVL2:
  51              	.L27:
 213:./Drivers_V1.0.4/STM32F1xx_HAL_Driver/Src/stm32f1xx_hal_gpio.c ****   {
 214:./Drivers_V1.0.4/STM32F1xx_HAL_Driver/Src/stm32f1xx_hal_gpio.c ****     /* Get the IO position */
 215:./Drivers_V1.0.4/STM32F1xx_HAL_Driver/Src/stm32f1xx_hal_gpio.c ****     ioposition = ((uint32_t)0x01) << position;
  52              		.loc 1 215 0
  53 000a 0122     		movs	r2, #1
  54 000c A240     		lsls	r2, r2, r4
  55              	.LVL3:
 216:./Drivers_V1.0.4/STM32F1xx_HAL_Driver/Src/stm32f1xx_hal_gpio.c ****     
 217:./Drivers_V1.0.4/STM32F1xx_HAL_Driver/Src/stm32f1xx_hal_gpio.c ****     /* Get the current IO position */
 218:./Drivers_V1.0.4/STM32F1xx_HAL_Driver/Src/stm32f1xx_hal_gpio.c ****     iocurrent = (uint32_t)(GPIO_Init->Pin) & ioposition;
  56              		.loc 1 218 0
  57 000e 0B68     		ldr	r3, [r1]
  58 0010 1340     		ands	r3, r3, r2
  59              	.LVL4:
 219:./Drivers_V1.0.4/STM32F1xx_HAL_Driver/Src/stm32f1xx_hal_gpio.c **** 
 220:./Drivers_V1.0.4/STM32F1xx_HAL_Driver/Src/stm32f1xx_hal_gpio.c ****     if (iocurrent == ioposition)
  60              		.loc 1 220 0
  61 0012 9A42     		cmp	r2, r3
  62 0014 40F0CE80 		bne	.L3
 221:./Drivers_V1.0.4/STM32F1xx_HAL_Driver/Src/stm32f1xx_hal_gpio.c ****     {
 222:./Drivers_V1.0.4/STM32F1xx_HAL_Driver/Src/stm32f1xx_hal_gpio.c ****       /* Check the Alternate function parameters */
 223:./Drivers_V1.0.4/STM32F1xx_HAL_Driver/Src/stm32f1xx_hal_gpio.c ****       assert_param(IS_GPIO_AF_INSTANCE(GPIOx));
 224:./Drivers_V1.0.4/STM32F1xx_HAL_Driver/Src/stm32f1xx_hal_gpio.c **** 
ARM GAS  /var/folders/jn/652hmfdj2m99syhs9p34dk640000gq/T//ccYoQe7e.s 			page 6


 225:./Drivers_V1.0.4/STM32F1xx_HAL_Driver/Src/stm32f1xx_hal_gpio.c ****       /* Based on the required mode, filling config variable with MODEy[1:0] and CNFy[3:2] correspo
 226:./Drivers_V1.0.4/STM32F1xx_HAL_Driver/Src/stm32f1xx_hal_gpio.c ****       switch (GPIO_Init->Mode)
  63              		.loc 1 226 0
  64 0018 4D68     		ldr	r5, [r1, #4]
  65 001a 122D     		cmp	r5, #18
  66 001c 2DD0     		beq	.L5
  67 001e 0BD8     		bhi	.L6
  68 0020 022D     		cmp	r5, #2
  69 0022 27D0     		beq	.L7
  70 0024 03D8     		bhi	.L8
  71 0026 5DB3     		cbz	r5, .L9
  72 0028 012D     		cmp	r5, #1
  73 002a 1ED0     		beq	.L10
  74 002c 35E0     		b	.L11
  75              	.L8:
  76 002e 032D     		cmp	r5, #3
  77 0030 30D0     		beq	.L28
  78 0032 112D     		cmp	r5, #17
  79 0034 1BD0     		beq	.L12
  80 0036 30E0     		b	.L11
  81              	.L6:
  82 0038 614F     		ldr	r7, .L35
  83 003a BD42     		cmp	r5, r7
  84 003c 20D0     		beq	.L9
  85 003e 08D8     		bhi	.L13
  86 0040 A7F58017 		sub	r7, r7, #1048576
  87 0044 BD42     		cmp	r5, r7
  88 0046 1BD0     		beq	.L9
  89 0048 07F58037 		add	r7, r7, #65536
  90 004c BD42     		cmp	r5, r7
  91 004e 24D1     		bne	.L11
  92 0050 16E0     		b	.L9
  93              	.L13:
  94 0052 5C4F     		ldr	r7, .L35+4
  95 0054 BD42     		cmp	r5, r7
  96 0056 13D0     		beq	.L9
  97 0058 07F58037 		add	r7, r7, #65536
  98 005c BD42     		cmp	r5, r7
  99 005e 0FD0     		beq	.L9
 100 0060 A7F58017 		sub	r7, r7, #1048576
 101 0064 BD42     		cmp	r5, r7
 102 0066 18D1     		bne	.L11
 103 0068 0AE0     		b	.L9
 104              	.L10:
 227:./Drivers_V1.0.4/STM32F1xx_HAL_Driver/Src/stm32f1xx_hal_gpio.c ****       {
 228:./Drivers_V1.0.4/STM32F1xx_HAL_Driver/Src/stm32f1xx_hal_gpio.c ****         /* If we are configuring the pin in OUTPUT push-pull mode */
 229:./Drivers_V1.0.4/STM32F1xx_HAL_Driver/Src/stm32f1xx_hal_gpio.c ****         case GPIO_MODE_OUTPUT_PP:
 230:./Drivers_V1.0.4/STM32F1xx_HAL_Driver/Src/stm32f1xx_hal_gpio.c ****           /* Check the GPIO speed parameter */
 231:./Drivers_V1.0.4/STM32F1xx_HAL_Driver/Src/stm32f1xx_hal_gpio.c ****           assert_param(IS_GPIO_SPEED(GPIO_Init->Speed));
 232:./Drivers_V1.0.4/STM32F1xx_HAL_Driver/Src/stm32f1xx_hal_gpio.c ****           config = GPIO_Init->Speed + GPIO_CR_CNF_GP_OUTPUT_PP;
 105              		.loc 1 232 0
 106 006a CE68     		ldr	r6, [r1, #12]
 107              	.LVL5:
 233:./Drivers_V1.0.4/STM32F1xx_HAL_Driver/Src/stm32f1xx_hal_gpio.c ****           break;
 108              		.loc 1 233 0
 109 006c 15E0     		b	.L11
 110              	.L12:
ARM GAS  /var/folders/jn/652hmfdj2m99syhs9p34dk640000gq/T//ccYoQe7e.s 			page 7


 234:./Drivers_V1.0.4/STM32F1xx_HAL_Driver/Src/stm32f1xx_hal_gpio.c ****           
 235:./Drivers_V1.0.4/STM32F1xx_HAL_Driver/Src/stm32f1xx_hal_gpio.c ****         /* If we are configuring the pin in OUTPUT open-drain mode */
 236:./Drivers_V1.0.4/STM32F1xx_HAL_Driver/Src/stm32f1xx_hal_gpio.c ****         case GPIO_MODE_OUTPUT_OD:
 237:./Drivers_V1.0.4/STM32F1xx_HAL_Driver/Src/stm32f1xx_hal_gpio.c ****           /* Check the GPIO speed parameter */
 238:./Drivers_V1.0.4/STM32F1xx_HAL_Driver/Src/stm32f1xx_hal_gpio.c ****           assert_param(IS_GPIO_SPEED(GPIO_Init->Speed));
 239:./Drivers_V1.0.4/STM32F1xx_HAL_Driver/Src/stm32f1xx_hal_gpio.c ****           config = GPIO_Init->Speed + GPIO_CR_CNF_GP_OUTPUT_OD;
 111              		.loc 1 239 0
 112 006e CE68     		ldr	r6, [r1, #12]
 113              	.LVL6:
 114 0070 0436     		adds	r6, r6, #4
 115              	.LVL7:
 240:./Drivers_V1.0.4/STM32F1xx_HAL_Driver/Src/stm32f1xx_hal_gpio.c ****           break;
 116              		.loc 1 240 0
 117 0072 12E0     		b	.L11
 118              	.L7:
 241:./Drivers_V1.0.4/STM32F1xx_HAL_Driver/Src/stm32f1xx_hal_gpio.c ****           
 242:./Drivers_V1.0.4/STM32F1xx_HAL_Driver/Src/stm32f1xx_hal_gpio.c ****         /* If we are configuring the pin in ALTERNATE FUNCTION push-pull mode */
 243:./Drivers_V1.0.4/STM32F1xx_HAL_Driver/Src/stm32f1xx_hal_gpio.c ****         case GPIO_MODE_AF_PP:
 244:./Drivers_V1.0.4/STM32F1xx_HAL_Driver/Src/stm32f1xx_hal_gpio.c ****           /* Check the GPIO speed parameter */
 245:./Drivers_V1.0.4/STM32F1xx_HAL_Driver/Src/stm32f1xx_hal_gpio.c ****           assert_param(IS_GPIO_SPEED(GPIO_Init->Speed));
 246:./Drivers_V1.0.4/STM32F1xx_HAL_Driver/Src/stm32f1xx_hal_gpio.c ****           config = GPIO_Init->Speed + GPIO_CR_CNF_AF_OUTPUT_PP;
 119              		.loc 1 246 0
 120 0074 CE68     		ldr	r6, [r1, #12]
 121              	.LVL8:
 122 0076 0836     		adds	r6, r6, #8
 123              	.LVL9:
 247:./Drivers_V1.0.4/STM32F1xx_HAL_Driver/Src/stm32f1xx_hal_gpio.c ****           break;
 124              		.loc 1 247 0
 125 0078 0FE0     		b	.L11
 126              	.L5:
 248:./Drivers_V1.0.4/STM32F1xx_HAL_Driver/Src/stm32f1xx_hal_gpio.c ****           
 249:./Drivers_V1.0.4/STM32F1xx_HAL_Driver/Src/stm32f1xx_hal_gpio.c ****         /* If we are configuring the pin in ALTERNATE FUNCTION open-drain mode */
 250:./Drivers_V1.0.4/STM32F1xx_HAL_Driver/Src/stm32f1xx_hal_gpio.c ****         case GPIO_MODE_AF_OD:
 251:./Drivers_V1.0.4/STM32F1xx_HAL_Driver/Src/stm32f1xx_hal_gpio.c ****           /* Check the GPIO speed parameter */
 252:./Drivers_V1.0.4/STM32F1xx_HAL_Driver/Src/stm32f1xx_hal_gpio.c ****           assert_param(IS_GPIO_SPEED(GPIO_Init->Speed));
 253:./Drivers_V1.0.4/STM32F1xx_HAL_Driver/Src/stm32f1xx_hal_gpio.c ****           config = GPIO_Init->Speed + GPIO_CR_CNF_AF_OUTPUT_OD;
 127              		.loc 1 253 0
 128 007a CE68     		ldr	r6, [r1, #12]
 129              	.LVL10:
 130 007c 0C36     		adds	r6, r6, #12
 131              	.LVL11:
 254:./Drivers_V1.0.4/STM32F1xx_HAL_Driver/Src/stm32f1xx_hal_gpio.c ****           break;
 132              		.loc 1 254 0
 133 007e 0CE0     		b	.L11
 134              	.L9:
 255:./Drivers_V1.0.4/STM32F1xx_HAL_Driver/Src/stm32f1xx_hal_gpio.c ****           
 256:./Drivers_V1.0.4/STM32F1xx_HAL_Driver/Src/stm32f1xx_hal_gpio.c ****         /* If we are configuring the pin in INPUT (also applicable to EVENT and IT mode) */
 257:./Drivers_V1.0.4/STM32F1xx_HAL_Driver/Src/stm32f1xx_hal_gpio.c ****         case GPIO_MODE_INPUT:
 258:./Drivers_V1.0.4/STM32F1xx_HAL_Driver/Src/stm32f1xx_hal_gpio.c ****         case GPIO_MODE_IT_RISING:
 259:./Drivers_V1.0.4/STM32F1xx_HAL_Driver/Src/stm32f1xx_hal_gpio.c ****         case GPIO_MODE_IT_FALLING:
 260:./Drivers_V1.0.4/STM32F1xx_HAL_Driver/Src/stm32f1xx_hal_gpio.c ****         case GPIO_MODE_IT_RISING_FALLING:
 261:./Drivers_V1.0.4/STM32F1xx_HAL_Driver/Src/stm32f1xx_hal_gpio.c ****         case GPIO_MODE_EVT_RISING:
 262:./Drivers_V1.0.4/STM32F1xx_HAL_Driver/Src/stm32f1xx_hal_gpio.c ****         case GPIO_MODE_EVT_FALLING:
 263:./Drivers_V1.0.4/STM32F1xx_HAL_Driver/Src/stm32f1xx_hal_gpio.c ****         case GPIO_MODE_EVT_RISING_FALLING:
 264:./Drivers_V1.0.4/STM32F1xx_HAL_Driver/Src/stm32f1xx_hal_gpio.c ****           /* Check the GPIO pull parameter */
 265:./Drivers_V1.0.4/STM32F1xx_HAL_Driver/Src/stm32f1xx_hal_gpio.c ****           assert_param(IS_GPIO_PULL(GPIO_Init->Pull));
 266:./Drivers_V1.0.4/STM32F1xx_HAL_Driver/Src/stm32f1xx_hal_gpio.c ****           if(GPIO_Init->Pull == GPIO_NOPULL)
ARM GAS  /var/folders/jn/652hmfdj2m99syhs9p34dk640000gq/T//ccYoQe7e.s 			page 8


 135              		.loc 1 266 0
 136 0080 8D68     		ldr	r5, [r1, #8]
 137 0082 4DB1     		cbz	r5, .L29
 267:./Drivers_V1.0.4/STM32F1xx_HAL_Driver/Src/stm32f1xx_hal_gpio.c ****           {  
 268:./Drivers_V1.0.4/STM32F1xx_HAL_Driver/Src/stm32f1xx_hal_gpio.c ****             config = GPIO_CR_MODE_INPUT + GPIO_CR_CNF_INPUT_FLOATING;
 269:./Drivers_V1.0.4/STM32F1xx_HAL_Driver/Src/stm32f1xx_hal_gpio.c ****           }
 270:./Drivers_V1.0.4/STM32F1xx_HAL_Driver/Src/stm32f1xx_hal_gpio.c ****           else if(GPIO_Init->Pull == GPIO_PULLUP)
 138              		.loc 1 270 0
 139 0084 012D     		cmp	r5, #1
 140 0086 02D1     		bne	.L14
 141              	.LVL12:
 271:./Drivers_V1.0.4/STM32F1xx_HAL_Driver/Src/stm32f1xx_hal_gpio.c ****           {
 272:./Drivers_V1.0.4/STM32F1xx_HAL_Driver/Src/stm32f1xx_hal_gpio.c ****             config = GPIO_CR_MODE_INPUT + GPIO_CR_CNF_INPUT_PU_PD;
 273:./Drivers_V1.0.4/STM32F1xx_HAL_Driver/Src/stm32f1xx_hal_gpio.c ****             
 274:./Drivers_V1.0.4/STM32F1xx_HAL_Driver/Src/stm32f1xx_hal_gpio.c ****             /* Set the corresponding ODR bit */
 275:./Drivers_V1.0.4/STM32F1xx_HAL_Driver/Src/stm32f1xx_hal_gpio.c ****             GPIOx->BSRR = ioposition;
 142              		.loc 1 275 0
 143 0088 0261     		str	r2, [r0, #16]
 272:./Drivers_V1.0.4/STM32F1xx_HAL_Driver/Src/stm32f1xx_hal_gpio.c ****             
 144              		.loc 1 272 0
 145 008a 0826     		movs	r6, #8
 146 008c 05E0     		b	.L11
 147              	.LVL13:
 148              	.L14:
 276:./Drivers_V1.0.4/STM32F1xx_HAL_Driver/Src/stm32f1xx_hal_gpio.c ****           }
 277:./Drivers_V1.0.4/STM32F1xx_HAL_Driver/Src/stm32f1xx_hal_gpio.c ****           else /* GPIO_PULLDOWN */
 278:./Drivers_V1.0.4/STM32F1xx_HAL_Driver/Src/stm32f1xx_hal_gpio.c ****           {
 279:./Drivers_V1.0.4/STM32F1xx_HAL_Driver/Src/stm32f1xx_hal_gpio.c ****             config = GPIO_CR_MODE_INPUT + GPIO_CR_CNF_INPUT_PU_PD;
 280:./Drivers_V1.0.4/STM32F1xx_HAL_Driver/Src/stm32f1xx_hal_gpio.c ****             
 281:./Drivers_V1.0.4/STM32F1xx_HAL_Driver/Src/stm32f1xx_hal_gpio.c ****             /* Reset the corresponding ODR bit */
 282:./Drivers_V1.0.4/STM32F1xx_HAL_Driver/Src/stm32f1xx_hal_gpio.c ****             GPIOx->BRR = ioposition;
 149              		.loc 1 282 0
 150 008e 4261     		str	r2, [r0, #20]
 279:./Drivers_V1.0.4/STM32F1xx_HAL_Driver/Src/stm32f1xx_hal_gpio.c ****             
 151              		.loc 1 279 0
 152 0090 0826     		movs	r6, #8
 153 0092 02E0     		b	.L11
 154              	.LVL14:
 155              	.L28:
 283:./Drivers_V1.0.4/STM32F1xx_HAL_Driver/Src/stm32f1xx_hal_gpio.c ****           }
 284:./Drivers_V1.0.4/STM32F1xx_HAL_Driver/Src/stm32f1xx_hal_gpio.c ****           break; 
 285:./Drivers_V1.0.4/STM32F1xx_HAL_Driver/Src/stm32f1xx_hal_gpio.c ****           
 286:./Drivers_V1.0.4/STM32F1xx_HAL_Driver/Src/stm32f1xx_hal_gpio.c ****         /* If we are configuring the pin in INPUT analog mode */
 287:./Drivers_V1.0.4/STM32F1xx_HAL_Driver/Src/stm32f1xx_hal_gpio.c ****         case GPIO_MODE_ANALOG:
 288:./Drivers_V1.0.4/STM32F1xx_HAL_Driver/Src/stm32f1xx_hal_gpio.c ****             config = GPIO_CR_MODE_INPUT + GPIO_CR_CNF_ANALOG;
 156              		.loc 1 288 0
 157 0094 0026     		movs	r6, #0
 158              	.LVL15:
 159 0096 00E0     		b	.L11
 160              	.LVL16:
 161              	.L29:
 268:./Drivers_V1.0.4/STM32F1xx_HAL_Driver/Src/stm32f1xx_hal_gpio.c ****           }
 162              		.loc 1 268 0
 163 0098 0426     		movs	r6, #4
 164              	.LVL17:
 165              	.L11:
 289:./Drivers_V1.0.4/STM32F1xx_HAL_Driver/Src/stm32f1xx_hal_gpio.c ****           break;
ARM GAS  /var/folders/jn/652hmfdj2m99syhs9p34dk640000gq/T//ccYoQe7e.s 			page 9


 290:./Drivers_V1.0.4/STM32F1xx_HAL_Driver/Src/stm32f1xx_hal_gpio.c ****         
 291:./Drivers_V1.0.4/STM32F1xx_HAL_Driver/Src/stm32f1xx_hal_gpio.c ****         /* Parameters are checked with assert_param */
 292:./Drivers_V1.0.4/STM32F1xx_HAL_Driver/Src/stm32f1xx_hal_gpio.c ****         default:
 293:./Drivers_V1.0.4/STM32F1xx_HAL_Driver/Src/stm32f1xx_hal_gpio.c ****           break;
 294:./Drivers_V1.0.4/STM32F1xx_HAL_Driver/Src/stm32f1xx_hal_gpio.c ****       }
 295:./Drivers_V1.0.4/STM32F1xx_HAL_Driver/Src/stm32f1xx_hal_gpio.c ****       
 296:./Drivers_V1.0.4/STM32F1xx_HAL_Driver/Src/stm32f1xx_hal_gpio.c ****       /* Check if the current bit belongs to first half or last half of the pin count number
 297:./Drivers_V1.0.4/STM32F1xx_HAL_Driver/Src/stm32f1xx_hal_gpio.c ****        in order to address CRH or CRL register*/
 298:./Drivers_V1.0.4/STM32F1xx_HAL_Driver/Src/stm32f1xx_hal_gpio.c ****       configregister = (iocurrent < GPIO_PIN_8) ? &GPIOx->CRL     : &GPIOx->CRH;
 166              		.loc 1 298 0
 167 009a FF2B     		cmp	r3, #255
 168 009c 01D8     		bhi	.L15
 169              		.loc 1 298 0 is_stmt 0 discriminator 1
 170 009e 8646     		mov	lr, r0
 171 00a0 01E0     		b	.L16
 172              	.L15:
 173              		.loc 1 298 0 discriminator 2
 174 00a2 00F1040E 		add	lr, r0, #4
 175              	.L16:
 176              	.LVL18:
 299:./Drivers_V1.0.4/STM32F1xx_HAL_Driver/Src/stm32f1xx_hal_gpio.c ****       registeroffset = (iocurrent < GPIO_PIN_8) ? (position << 2) : ((position - 8) << 2);
 177              		.loc 1 299 0 is_stmt 1 discriminator 4
 178 00a6 FF2B     		cmp	r3, #255
 179 00a8 01D8     		bhi	.L17
 180              		.loc 1 299 0 is_stmt 0 discriminator 1
 181 00aa A200     		lsls	r2, r4, #2
 182              	.LVL19:
 183 00ac 02E0     		b	.L18
 184              	.LVL20:
 185              	.L17:
 186              		.loc 1 299 0 discriminator 2
 187 00ae A4F10802 		sub	r2, r4, #8
 188              	.LVL21:
 189 00b2 9200     		lsls	r2, r2, #2
 190              	.L18:
 191              	.LVL22:
 300:./Drivers_V1.0.4/STM32F1xx_HAL_Driver/Src/stm32f1xx_hal_gpio.c ****       
 301:./Drivers_V1.0.4/STM32F1xx_HAL_Driver/Src/stm32f1xx_hal_gpio.c ****       /* Apply the new configuration of the pin to the register */
 302:./Drivers_V1.0.4/STM32F1xx_HAL_Driver/Src/stm32f1xx_hal_gpio.c ****       MODIFY_REG((*configregister), ((GPIO_CRL_MODE0 | GPIO_CRL_CNF0) << registeroffset ), (config 
 192              		.loc 1 302 0 is_stmt 1 discriminator 4
 193 00b4 DEF80070 		ldr	r7, [lr]
 194 00b8 0F25     		movs	r5, #15
 195 00ba 9540     		lsls	r5, r5, r2
 196 00bc 27EA0505 		bic	r5, r7, r5
 197 00c0 06FA02F2 		lsl	r2, r6, r2
 198              	.LVL23:
 199 00c4 2A43     		orrs	r2, r2, r5
 200 00c6 CEF80020 		str	r2, [lr]
 303:./Drivers_V1.0.4/STM32F1xx_HAL_Driver/Src/stm32f1xx_hal_gpio.c ****       
 304:./Drivers_V1.0.4/STM32F1xx_HAL_Driver/Src/stm32f1xx_hal_gpio.c ****       /*--------------------- EXTI Mode Configuration ------------------------*/
 305:./Drivers_V1.0.4/STM32F1xx_HAL_Driver/Src/stm32f1xx_hal_gpio.c ****       /* Configure the External Interrupt or event for the current IO */
 306:./Drivers_V1.0.4/STM32F1xx_HAL_Driver/Src/stm32f1xx_hal_gpio.c ****       if((GPIO_Init->Mode & EXTI_MODE) == EXTI_MODE) 
 201              		.loc 1 306 0 discriminator 4
 202 00ca 4A68     		ldr	r2, [r1, #4]
 203 00cc 12F0805F 		tst	r2, #268435456
 204 00d0 70D0     		beq	.L3
 205              	.LBB2:
ARM GAS  /var/folders/jn/652hmfdj2m99syhs9p34dk640000gq/T//ccYoQe7e.s 			page 10


 307:./Drivers_V1.0.4/STM32F1xx_HAL_Driver/Src/stm32f1xx_hal_gpio.c ****       {
 308:./Drivers_V1.0.4/STM32F1xx_HAL_Driver/Src/stm32f1xx_hal_gpio.c ****         /* Enable AFIO Clock */
 309:./Drivers_V1.0.4/STM32F1xx_HAL_Driver/Src/stm32f1xx_hal_gpio.c ****         __HAL_RCC_AFIO_CLK_ENABLE();
 206              		.loc 1 309 0
 207 00d2 3D4A     		ldr	r2, .L35+8
 208 00d4 9569     		ldr	r5, [r2, #24]
 209 00d6 45F00105 		orr	r5, r5, #1
 210 00da 9561     		str	r5, [r2, #24]
 211 00dc 9269     		ldr	r2, [r2, #24]
 212 00de 02F00102 		and	r2, r2, #1
 213 00e2 0192     		str	r2, [sp, #4]
 214 00e4 019A     		ldr	r2, [sp, #4]
 215              	.LBE2:
 310:./Drivers_V1.0.4/STM32F1xx_HAL_Driver/Src/stm32f1xx_hal_gpio.c ****         temp = AFIO->EXTICR[position >> 2];
 216              		.loc 1 310 0
 217 00e6 A708     		lsrs	r7, r4, #2
 218 00e8 BD1C     		adds	r5, r7, #2
 219 00ea 384A     		ldr	r2, .L35+12
 220 00ec 52F82550 		ldr	r5, [r2, r5, lsl #2]
 221              	.LVL24:
 311:./Drivers_V1.0.4/STM32F1xx_HAL_Driver/Src/stm32f1xx_hal_gpio.c ****         CLEAR_BIT(temp, ((uint32_t)0x0F) << (4 * (position & 0x03)));
 222              		.loc 1 311 0
 223 00f0 04F00302 		and	r2, r4, #3
 224 00f4 9200     		lsls	r2, r2, #2
 225 00f6 4FF00F0E 		mov	lr, #15
 226              	.LVL25:
 227 00fa 0EFA02FE 		lsl	lr, lr, r2
 228 00fe 25EA0E0E 		bic	lr, r5, lr
 229              	.LVL26:
 312:./Drivers_V1.0.4/STM32F1xx_HAL_Driver/Src/stm32f1xx_hal_gpio.c ****         SET_BIT(temp, (GPIO_GET_INDEX(GPIOx)) << (4 * (position & 0x03)));
 230              		.loc 1 312 0
 231 0102 334D     		ldr	r5, .L35+16
 232 0104 A842     		cmp	r0, r5
 233 0106 0DD0     		beq	.L30
 234              		.loc 1 312 0 is_stmt 0 discriminator 1
 235 0108 05F58065 		add	r5, r5, #1024
 236 010c A842     		cmp	r0, r5
 237 010e 0BD0     		beq	.L31
 238              		.loc 1 312 0 discriminator 3
 239 0110 05F58065 		add	r5, r5, #1024
 240 0114 A842     		cmp	r0, r5
 241 0116 09D0     		beq	.L32
 242              		.loc 1 312 0 discriminator 5
 243 0118 05F58065 		add	r5, r5, #1024
 244 011c A842     		cmp	r0, r5
 245 011e 07D1     		bne	.L33
 246              		.loc 1 312 0
 247 0120 0325     		movs	r5, #3
 248 0122 06E0     		b	.L19
 249              	.L30:
 250 0124 0025     		movs	r5, #0
 251 0126 04E0     		b	.L19
 252              	.L31:
 253 0128 0125     		movs	r5, #1
 254              	.LVL27:
 255 012a 02E0     		b	.L19
 256              	.LVL28:
ARM GAS  /var/folders/jn/652hmfdj2m99syhs9p34dk640000gq/T//ccYoQe7e.s 			page 11


 257              	.L32:
 258 012c 0225     		movs	r5, #2
 259 012e 00E0     		b	.L19
 260              	.L33:
 261 0130 0425     		movs	r5, #4
 262              	.L19:
 263              		.loc 1 312 0 discriminator 16
 264 0132 05FA02F2 		lsl	r2, r5, r2
 265 0136 4EEA0202 		orr	r2, lr, r2
 266              	.LVL29:
 313:./Drivers_V1.0.4/STM32F1xx_HAL_Driver/Src/stm32f1xx_hal_gpio.c ****         AFIO->EXTICR[position >> 2] = temp;
 267              		.loc 1 313 0 is_stmt 1 discriminator 16
 268 013a 0237     		adds	r7, r7, #2
 269 013c 234D     		ldr	r5, .L35+12
 270 013e 45F82720 		str	r2, [r5, r7, lsl #2]
 314:./Drivers_V1.0.4/STM32F1xx_HAL_Driver/Src/stm32f1xx_hal_gpio.c ****         
 315:./Drivers_V1.0.4/STM32F1xx_HAL_Driver/Src/stm32f1xx_hal_gpio.c **** 
 316:./Drivers_V1.0.4/STM32F1xx_HAL_Driver/Src/stm32f1xx_hal_gpio.c ****         /* Configure the interrupt mask */
 317:./Drivers_V1.0.4/STM32F1xx_HAL_Driver/Src/stm32f1xx_hal_gpio.c ****         if((GPIO_Init->Mode & GPIO_MODE_IT) == GPIO_MODE_IT)
 271              		.loc 1 317 0 discriminator 16
 272 0142 4A68     		ldr	r2, [r1, #4]
 273              	.LVL30:
 274 0144 12F4803F 		tst	r2, #65536
 275 0148 05D0     		beq	.L20
 318:./Drivers_V1.0.4/STM32F1xx_HAL_Driver/Src/stm32f1xx_hal_gpio.c ****         {
 319:./Drivers_V1.0.4/STM32F1xx_HAL_Driver/Src/stm32f1xx_hal_gpio.c ****           SET_BIT(EXTI->IMR, iocurrent); 
 276              		.loc 1 319 0
 277 014a 05F58065 		add	r5, r5, #1024
 278              	.LVL31:
 279 014e 2A68     		ldr	r2, [r5]
 280 0150 1A43     		orrs	r2, r2, r3
 281 0152 2A60     		str	r2, [r5]
 282              	.LVL32:
 283 0154 04E0     		b	.L21
 284              	.LVL33:
 285              	.L20:
 320:./Drivers_V1.0.4/STM32F1xx_HAL_Driver/Src/stm32f1xx_hal_gpio.c ****         } 
 321:./Drivers_V1.0.4/STM32F1xx_HAL_Driver/Src/stm32f1xx_hal_gpio.c ****         else
 322:./Drivers_V1.0.4/STM32F1xx_HAL_Driver/Src/stm32f1xx_hal_gpio.c ****         {
 323:./Drivers_V1.0.4/STM32F1xx_HAL_Driver/Src/stm32f1xx_hal_gpio.c ****           CLEAR_BIT(EXTI->IMR, iocurrent); 
 286              		.loc 1 323 0
 287 0156 1F4D     		ldr	r5, .L35+20
 288              	.LVL34:
 289 0158 2A68     		ldr	r2, [r5]
 290 015a 22EA0302 		bic	r2, r2, r3
 291 015e 2A60     		str	r2, [r5]
 292              	.LVL35:
 293              	.L21:
 324:./Drivers_V1.0.4/STM32F1xx_HAL_Driver/Src/stm32f1xx_hal_gpio.c ****         } 
 325:./Drivers_V1.0.4/STM32F1xx_HAL_Driver/Src/stm32f1xx_hal_gpio.c ****         
 326:./Drivers_V1.0.4/STM32F1xx_HAL_Driver/Src/stm32f1xx_hal_gpio.c ****         /* Configure the event mask */
 327:./Drivers_V1.0.4/STM32F1xx_HAL_Driver/Src/stm32f1xx_hal_gpio.c ****         if((GPIO_Init->Mode & GPIO_MODE_EVT) == GPIO_MODE_EVT)
 294              		.loc 1 327 0
 295 0160 4A68     		ldr	r2, [r1, #4]
 296 0162 12F4003F 		tst	r2, #131072
 297 0166 04D0     		beq	.L22
 328:./Drivers_V1.0.4/STM32F1xx_HAL_Driver/Src/stm32f1xx_hal_gpio.c ****         {
ARM GAS  /var/folders/jn/652hmfdj2m99syhs9p34dk640000gq/T//ccYoQe7e.s 			page 12


 329:./Drivers_V1.0.4/STM32F1xx_HAL_Driver/Src/stm32f1xx_hal_gpio.c ****           SET_BIT(EXTI->EMR, iocurrent); 
 298              		.loc 1 329 0
 299 0168 1A4D     		ldr	r5, .L35+20
 300 016a 6A68     		ldr	r2, [r5, #4]
 301 016c 1A43     		orrs	r2, r2, r3
 302 016e 6A60     		str	r2, [r5, #4]
 303 0170 04E0     		b	.L23
 304              	.L22:
 330:./Drivers_V1.0.4/STM32F1xx_HAL_Driver/Src/stm32f1xx_hal_gpio.c ****         } 
 331:./Drivers_V1.0.4/STM32F1xx_HAL_Driver/Src/stm32f1xx_hal_gpio.c ****         else
 332:./Drivers_V1.0.4/STM32F1xx_HAL_Driver/Src/stm32f1xx_hal_gpio.c ****         {
 333:./Drivers_V1.0.4/STM32F1xx_HAL_Driver/Src/stm32f1xx_hal_gpio.c ****           CLEAR_BIT(EXTI->EMR, iocurrent); 
 305              		.loc 1 333 0
 306 0172 184D     		ldr	r5, .L35+20
 307 0174 6A68     		ldr	r2, [r5, #4]
 308 0176 22EA0302 		bic	r2, r2, r3
 309 017a 6A60     		str	r2, [r5, #4]
 310              	.L23:
 334:./Drivers_V1.0.4/STM32F1xx_HAL_Driver/Src/stm32f1xx_hal_gpio.c ****         }
 335:./Drivers_V1.0.4/STM32F1xx_HAL_Driver/Src/stm32f1xx_hal_gpio.c ****         
 336:./Drivers_V1.0.4/STM32F1xx_HAL_Driver/Src/stm32f1xx_hal_gpio.c ****         /* Enable or disable the rising trigger */
 337:./Drivers_V1.0.4/STM32F1xx_HAL_Driver/Src/stm32f1xx_hal_gpio.c ****         if((GPIO_Init->Mode & RISING_EDGE) == RISING_EDGE)
 311              		.loc 1 337 0
 312 017c 4A68     		ldr	r2, [r1, #4]
 313 017e 12F4801F 		tst	r2, #1048576
 314 0182 04D0     		beq	.L24
 338:./Drivers_V1.0.4/STM32F1xx_HAL_Driver/Src/stm32f1xx_hal_gpio.c ****         {
 339:./Drivers_V1.0.4/STM32F1xx_HAL_Driver/Src/stm32f1xx_hal_gpio.c ****           SET_BIT(EXTI->RTSR, iocurrent); 
 315              		.loc 1 339 0
 316 0184 134D     		ldr	r5, .L35+20
 317 0186 AA68     		ldr	r2, [r5, #8]
 318 0188 1A43     		orrs	r2, r2, r3
 319 018a AA60     		str	r2, [r5, #8]
 320 018c 04E0     		b	.L25
 321              	.L24:
 340:./Drivers_V1.0.4/STM32F1xx_HAL_Driver/Src/stm32f1xx_hal_gpio.c ****         } 
 341:./Drivers_V1.0.4/STM32F1xx_HAL_Driver/Src/stm32f1xx_hal_gpio.c ****         else
 342:./Drivers_V1.0.4/STM32F1xx_HAL_Driver/Src/stm32f1xx_hal_gpio.c ****         {
 343:./Drivers_V1.0.4/STM32F1xx_HAL_Driver/Src/stm32f1xx_hal_gpio.c ****           CLEAR_BIT(EXTI->RTSR, iocurrent); 
 322              		.loc 1 343 0
 323 018e 114D     		ldr	r5, .L35+20
 324 0190 AA68     		ldr	r2, [r5, #8]
 325 0192 22EA0302 		bic	r2, r2, r3
 326 0196 AA60     		str	r2, [r5, #8]
 327              	.L25:
 344:./Drivers_V1.0.4/STM32F1xx_HAL_Driver/Src/stm32f1xx_hal_gpio.c ****         }
 345:./Drivers_V1.0.4/STM32F1xx_HAL_Driver/Src/stm32f1xx_hal_gpio.c ****         
 346:./Drivers_V1.0.4/STM32F1xx_HAL_Driver/Src/stm32f1xx_hal_gpio.c ****         /* Enable or disable the falling trigger */
 347:./Drivers_V1.0.4/STM32F1xx_HAL_Driver/Src/stm32f1xx_hal_gpio.c ****         if((GPIO_Init->Mode & FALLING_EDGE) == FALLING_EDGE)
 328              		.loc 1 347 0
 329 0198 4A68     		ldr	r2, [r1, #4]
 330 019a 12F4001F 		tst	r2, #2097152
 331 019e 04D0     		beq	.L26
 348:./Drivers_V1.0.4/STM32F1xx_HAL_Driver/Src/stm32f1xx_hal_gpio.c ****         {
 349:./Drivers_V1.0.4/STM32F1xx_HAL_Driver/Src/stm32f1xx_hal_gpio.c ****           SET_BIT(EXTI->FTSR, iocurrent); 
 332              		.loc 1 349 0
 333 01a0 0C4D     		ldr	r5, .L35+20
ARM GAS  /var/folders/jn/652hmfdj2m99syhs9p34dk640000gq/T//ccYoQe7e.s 			page 13


 334 01a2 EA68     		ldr	r2, [r5, #12]
 335 01a4 1343     		orrs	r3, r3, r2
 336              	.LVL36:
 337 01a6 EB60     		str	r3, [r5, #12]
 338 01a8 04E0     		b	.L3
 339              	.LVL37:
 340              	.L26:
 350:./Drivers_V1.0.4/STM32F1xx_HAL_Driver/Src/stm32f1xx_hal_gpio.c ****         } 
 351:./Drivers_V1.0.4/STM32F1xx_HAL_Driver/Src/stm32f1xx_hal_gpio.c ****         else
 352:./Drivers_V1.0.4/STM32F1xx_HAL_Driver/Src/stm32f1xx_hal_gpio.c ****         {
 353:./Drivers_V1.0.4/STM32F1xx_HAL_Driver/Src/stm32f1xx_hal_gpio.c ****           CLEAR_BIT(EXTI->FTSR, iocurrent); 
 341              		.loc 1 353 0
 342 01aa 0A4D     		ldr	r5, .L35+20
 343 01ac EA68     		ldr	r2, [r5, #12]
 344 01ae 22EA0303 		bic	r3, r2, r3
 345              	.LVL38:
 346 01b2 EB60     		str	r3, [r5, #12]
 347              	.L3:
 212:./Drivers_V1.0.4/STM32F1xx_HAL_Driver/Src/stm32f1xx_hal_gpio.c ****   {
 348              		.loc 1 212 0 discriminator 2
 349 01b4 0134     		adds	r4, r4, #1
 350              	.LVL39:
 351              	.L2:
 212:./Drivers_V1.0.4/STM32F1xx_HAL_Driver/Src/stm32f1xx_hal_gpio.c ****   {
 352              		.loc 1 212 0 is_stmt 0 discriminator 1
 353 01b6 0F2C     		cmp	r4, #15
 354 01b8 7FF627AF 		bls	.L27
 354:./Drivers_V1.0.4/STM32F1xx_HAL_Driver/Src/stm32f1xx_hal_gpio.c ****         }
 355:./Drivers_V1.0.4/STM32F1xx_HAL_Driver/Src/stm32f1xx_hal_gpio.c ****       }
 356:./Drivers_V1.0.4/STM32F1xx_HAL_Driver/Src/stm32f1xx_hal_gpio.c ****     }
 357:./Drivers_V1.0.4/STM32F1xx_HAL_Driver/Src/stm32f1xx_hal_gpio.c ****   }
 358:./Drivers_V1.0.4/STM32F1xx_HAL_Driver/Src/stm32f1xx_hal_gpio.c **** }
 355              		.loc 1 358 0 is_stmt 1
 356 01bc 03B0     		add	sp, sp, #12
 357              	.LCFI2:
 358              		.cfi_def_cfa_offset 20
 359              		@ sp needed
 360 01be F0BD     		pop	{r4, r5, r6, r7, pc}
 361              	.LVL40:
 362              	.L36:
 363              		.align	2
 364              	.L35:
 365 01c0 00002110 		.word	270598144
 366 01c4 00003110 		.word	271646720
 367 01c8 00100240 		.word	1073876992
 368 01cc 00000140 		.word	1073807360
 369 01d0 00080140 		.word	1073809408
 370 01d4 00040140 		.word	1073808384
 371              		.cfi_endproc
 372              	.LFE64:
 374              		.section	.text.HAL_GPIO_DeInit,"ax",%progbits
 375              		.align	2
 376              		.global	HAL_GPIO_DeInit
 377              		.thumb
 378              		.thumb_func
 380              	HAL_GPIO_DeInit:
 381              	.LFB65:
ARM GAS  /var/folders/jn/652hmfdj2m99syhs9p34dk640000gq/T//ccYoQe7e.s 			page 14


 359:./Drivers_V1.0.4/STM32F1xx_HAL_Driver/Src/stm32f1xx_hal_gpio.c **** 
 360:./Drivers_V1.0.4/STM32F1xx_HAL_Driver/Src/stm32f1xx_hal_gpio.c **** /**
 361:./Drivers_V1.0.4/STM32F1xx_HAL_Driver/Src/stm32f1xx_hal_gpio.c ****   * @brief  De-initializes the GPIOx peripheral registers to their default reset values.
 362:./Drivers_V1.0.4/STM32F1xx_HAL_Driver/Src/stm32f1xx_hal_gpio.c ****   * @param  GPIOx: where x can be (A..G depending on device used) to select the GPIO peripheral
 363:./Drivers_V1.0.4/STM32F1xx_HAL_Driver/Src/stm32f1xx_hal_gpio.c ****   * @param  GPIO_Pin: specifies the port bit to be written.
 364:./Drivers_V1.0.4/STM32F1xx_HAL_Driver/Src/stm32f1xx_hal_gpio.c ****   *         This parameter can be one of GPIO_PIN_x where x can be (0..15).
 365:./Drivers_V1.0.4/STM32F1xx_HAL_Driver/Src/stm32f1xx_hal_gpio.c ****   * @retval None
 366:./Drivers_V1.0.4/STM32F1xx_HAL_Driver/Src/stm32f1xx_hal_gpio.c ****   */
 367:./Drivers_V1.0.4/STM32F1xx_HAL_Driver/Src/stm32f1xx_hal_gpio.c **** void HAL_GPIO_DeInit(GPIO_TypeDef  *GPIOx, uint32_t GPIO_Pin)
 368:./Drivers_V1.0.4/STM32F1xx_HAL_Driver/Src/stm32f1xx_hal_gpio.c **** { 
 382              		.loc 1 368 0
 383              		.cfi_startproc
 384              		@ args = 0, pretend = 0, frame = 0
 385              		@ frame_needed = 0, uses_anonymous_args = 0
 386              	.LVL41:
 387 0000 F0B5     		push	{r4, r5, r6, r7, lr}
 388              	.LCFI3:
 389              		.cfi_def_cfa_offset 20
 390              		.cfi_offset 4, -20
 391              		.cfi_offset 5, -16
 392              		.cfi_offset 6, -12
 393              		.cfi_offset 7, -8
 394              		.cfi_offset 14, -4
 395              	.LVL42:
 369:./Drivers_V1.0.4/STM32F1xx_HAL_Driver/Src/stm32f1xx_hal_gpio.c ****   uint32_t position = 0x00;
 396              		.loc 1 369 0
 397 0002 0022     		movs	r2, #0
 370:./Drivers_V1.0.4/STM32F1xx_HAL_Driver/Src/stm32f1xx_hal_gpio.c ****   uint32_t iocurrent = 0x00;
 371:./Drivers_V1.0.4/STM32F1xx_HAL_Driver/Src/stm32f1xx_hal_gpio.c ****   uint32_t tmp = 0x00;
 372:./Drivers_V1.0.4/STM32F1xx_HAL_Driver/Src/stm32f1xx_hal_gpio.c ****   __IO uint32_t *configregister; /* Store the address of CRL or CRH register based on pin number */
 373:./Drivers_V1.0.4/STM32F1xx_HAL_Driver/Src/stm32f1xx_hal_gpio.c ****   uint32_t registeroffset = 0;
 374:./Drivers_V1.0.4/STM32F1xx_HAL_Driver/Src/stm32f1xx_hal_gpio.c ****  
 375:./Drivers_V1.0.4/STM32F1xx_HAL_Driver/Src/stm32f1xx_hal_gpio.c ****   /* Check the parameters */
 376:./Drivers_V1.0.4/STM32F1xx_HAL_Driver/Src/stm32f1xx_hal_gpio.c ****   assert_param(IS_GPIO_ALL_INSTANCE(GPIOx));
 377:./Drivers_V1.0.4/STM32F1xx_HAL_Driver/Src/stm32f1xx_hal_gpio.c ****   assert_param(IS_GPIO_PIN(GPIO_Pin));
 378:./Drivers_V1.0.4/STM32F1xx_HAL_Driver/Src/stm32f1xx_hal_gpio.c **** 
 379:./Drivers_V1.0.4/STM32F1xx_HAL_Driver/Src/stm32f1xx_hal_gpio.c ****   /* Configure the port pins */
 380:./Drivers_V1.0.4/STM32F1xx_HAL_Driver/Src/stm32f1xx_hal_gpio.c ****   while ((GPIO_Pin >> position) != 0)
 398              		.loc 1 380 0
 399 0004 60E0     		b	.L38
 400              	.LVL43:
 401              	.L45:
 381:./Drivers_V1.0.4/STM32F1xx_HAL_Driver/Src/stm32f1xx_hal_gpio.c ****   {
 382:./Drivers_V1.0.4/STM32F1xx_HAL_Driver/Src/stm32f1xx_hal_gpio.c ****     /* Get current io position */
 383:./Drivers_V1.0.4/STM32F1xx_HAL_Driver/Src/stm32f1xx_hal_gpio.c ****     iocurrent = (GPIO_Pin) & ((uint32_t)1 << position);
 402              		.loc 1 383 0
 403 0006 0123     		movs	r3, #1
 404 0008 9340     		lsls	r3, r3, r2
 405              	.LVL44:
 384:./Drivers_V1.0.4/STM32F1xx_HAL_Driver/Src/stm32f1xx_hal_gpio.c **** 
 385:./Drivers_V1.0.4/STM32F1xx_HAL_Driver/Src/stm32f1xx_hal_gpio.c ****     if (iocurrent)
 406              		.loc 1 385 0
 407 000a 0B40     		ands	r3, r1, r3
 408              	.LVL45:
 409 000c 5BD0     		beq	.L39
 386:./Drivers_V1.0.4/STM32F1xx_HAL_Driver/Src/stm32f1xx_hal_gpio.c ****     {
 387:./Drivers_V1.0.4/STM32F1xx_HAL_Driver/Src/stm32f1xx_hal_gpio.c ****       /*------------------------- GPIO Mode Configuration --------------------*/
ARM GAS  /var/folders/jn/652hmfdj2m99syhs9p34dk640000gq/T//ccYoQe7e.s 			page 15


 388:./Drivers_V1.0.4/STM32F1xx_HAL_Driver/Src/stm32f1xx_hal_gpio.c ****       /* Check if the current bit belongs to first half or last half of the pin count number
 389:./Drivers_V1.0.4/STM32F1xx_HAL_Driver/Src/stm32f1xx_hal_gpio.c ****        in order to address CRH or CRL register */
 390:./Drivers_V1.0.4/STM32F1xx_HAL_Driver/Src/stm32f1xx_hal_gpio.c ****       configregister = (iocurrent < GPIO_PIN_8) ? &GPIOx->CRL     : &GPIOx->CRH;
 410              		.loc 1 390 0
 411 000e FF2B     		cmp	r3, #255
 412 0010 01D8     		bhi	.L40
 413              		.loc 1 390 0 is_stmt 0 discriminator 1
 414 0012 8646     		mov	lr, r0
 415 0014 01E0     		b	.L41
 416              	.L40:
 417              		.loc 1 390 0 discriminator 2
 418 0016 00F1040E 		add	lr, r0, #4
 419              	.L41:
 420              	.LVL46:
 391:./Drivers_V1.0.4/STM32F1xx_HAL_Driver/Src/stm32f1xx_hal_gpio.c ****       registeroffset = (iocurrent < GPIO_PIN_8) ? (position << 2) : ((position - 8) << 2);
 421              		.loc 1 391 0 is_stmt 1 discriminator 4
 422 001a FF2B     		cmp	r3, #255
 423 001c 01D8     		bhi	.L42
 424              		.loc 1 391 0 is_stmt 0 discriminator 1
 425 001e 9400     		lsls	r4, r2, #2
 426 0020 02E0     		b	.L43
 427              	.L42:
 428              		.loc 1 391 0 discriminator 2
 429 0022 A2F10804 		sub	r4, r2, #8
 430 0026 A400     		lsls	r4, r4, #2
 431              	.L43:
 432              	.LVL47:
 392:./Drivers_V1.0.4/STM32F1xx_HAL_Driver/Src/stm32f1xx_hal_gpio.c ****       
 393:./Drivers_V1.0.4/STM32F1xx_HAL_Driver/Src/stm32f1xx_hal_gpio.c ****       /* CRL/CRH default value is floating input(0x04) shifted to correct position */
 394:./Drivers_V1.0.4/STM32F1xx_HAL_Driver/Src/stm32f1xx_hal_gpio.c ****       MODIFY_REG(*configregister, ((GPIO_CRL_MODE0 | GPIO_CRL_CNF0) << registeroffset ), GPIO_CRL_C
 433              		.loc 1 394 0 is_stmt 1 discriminator 4
 434 0028 DEF80050 		ldr	r5, [lr]
 435 002c 0F26     		movs	r6, #15
 436 002e 06FA04F7 		lsl	r7, r6, r4
 437 0032 25EA0707 		bic	r7, r5, r7
 438 0036 0425     		movs	r5, #4
 439 0038 05FA04F4 		lsl	r4, r5, r4
 440              	.LVL48:
 441 003c 3C43     		orrs	r4, r4, r7
 442 003e CEF80040 		str	r4, [lr]
 395:./Drivers_V1.0.4/STM32F1xx_HAL_Driver/Src/stm32f1xx_hal_gpio.c ****       
 396:./Drivers_V1.0.4/STM32F1xx_HAL_Driver/Src/stm32f1xx_hal_gpio.c ****       /* ODR default value is 0 */
 397:./Drivers_V1.0.4/STM32F1xx_HAL_Driver/Src/stm32f1xx_hal_gpio.c ****       CLEAR_BIT(GPIOx->ODR, iocurrent);
 443              		.loc 1 397 0 discriminator 4
 444 0042 C468     		ldr	r4, [r0, #12]
 445 0044 DB43     		mvns	r3, r3
 446              	.LVL49:
 447 0046 1C40     		ands	r4, r4, r3
 448 0048 C460     		str	r4, [r0, #12]
 398:./Drivers_V1.0.4/STM32F1xx_HAL_Driver/Src/stm32f1xx_hal_gpio.c ****       
 399:./Drivers_V1.0.4/STM32F1xx_HAL_Driver/Src/stm32f1xx_hal_gpio.c ****       /*------------------------- EXTI Mode Configuration --------------------*/
 400:./Drivers_V1.0.4/STM32F1xx_HAL_Driver/Src/stm32f1xx_hal_gpio.c ****       /* Clear the External Interrupt or Event for the current IO */
 401:./Drivers_V1.0.4/STM32F1xx_HAL_Driver/Src/stm32f1xx_hal_gpio.c ****       
 402:./Drivers_V1.0.4/STM32F1xx_HAL_Driver/Src/stm32f1xx_hal_gpio.c ****       tmp = AFIO->EXTICR[position >> 2];
 449              		.loc 1 402 0 discriminator 4
 450 004a 4FEA920E 		lsr	lr, r2, #2
 451              	.LVL50:
ARM GAS  /var/folders/jn/652hmfdj2m99syhs9p34dk640000gq/T//ccYoQe7e.s 			page 16


 452 004e 0EF10205 		add	r5, lr, #2
 453 0052 1F4C     		ldr	r4, .L51
 454 0054 54F82550 		ldr	r5, [r4, r5, lsl #2]
 455              	.LVL51:
 403:./Drivers_V1.0.4/STM32F1xx_HAL_Driver/Src/stm32f1xx_hal_gpio.c ****       tmp &= (((uint32_t)0x0F) << (4 * (position & 0x03)));
 456              		.loc 1 403 0 discriminator 4
 457 0058 02F00304 		and	r4, r2, #3
 458 005c A400     		lsls	r4, r4, #2
 459 005e A640     		lsls	r6, r6, r4
 460 0060 3540     		ands	r5, r5, r6
 461              	.LVL52:
 404:./Drivers_V1.0.4/STM32F1xx_HAL_Driver/Src/stm32f1xx_hal_gpio.c ****       if(tmp == (GPIO_GET_INDEX(GPIOx) << (4 * (position & 0x03))))
 462              		.loc 1 404 0 discriminator 4
 463 0062 1C4F     		ldr	r7, .L51+4
 464 0064 B842     		cmp	r0, r7
 465 0066 0DD0     		beq	.L46
 466              		.loc 1 404 0 is_stmt 0 discriminator 1
 467 0068 07F58067 		add	r7, r7, #1024
 468 006c B842     		cmp	r0, r7
 469 006e 0BD0     		beq	.L47
 470              		.loc 1 404 0 discriminator 3
 471 0070 07F58067 		add	r7, r7, #1024
 472 0074 B842     		cmp	r0, r7
 473 0076 09D0     		beq	.L48
 474              		.loc 1 404 0 discriminator 5
 475 0078 07F58067 		add	r7, r7, #1024
 476 007c B842     		cmp	r0, r7
 477 007e 07D1     		bne	.L49
 478              		.loc 1 404 0
 479 0080 0327     		movs	r7, #3
 480 0082 06E0     		b	.L44
 481              	.L46:
 482 0084 0027     		movs	r7, #0
 483 0086 04E0     		b	.L44
 484              	.L47:
 485 0088 0127     		movs	r7, #1
 486 008a 02E0     		b	.L44
 487              	.L48:
 488 008c 0227     		movs	r7, #2
 489 008e 00E0     		b	.L44
 490              	.L49:
 491 0090 0427     		movs	r7, #4
 492              	.L44:
 493              		.loc 1 404 0 discriminator 16
 494 0092 07FA04F4 		lsl	r4, r7, r4
 495 0096 A542     		cmp	r5, r4
 496 0098 15D1     		bne	.L39
 497              	.LVL53:
 405:./Drivers_V1.0.4/STM32F1xx_HAL_Driver/Src/stm32f1xx_hal_gpio.c ****       {
 406:./Drivers_V1.0.4/STM32F1xx_HAL_Driver/Src/stm32f1xx_hal_gpio.c ****         tmp = ((uint32_t)0x0F) << (4 * (position & 0x03));
 407:./Drivers_V1.0.4/STM32F1xx_HAL_Driver/Src/stm32f1xx_hal_gpio.c ****         CLEAR_BIT(AFIO->EXTICR[position >> 2], tmp);
 498              		.loc 1 407 0 is_stmt 1
 499 009a 0D4F     		ldr	r7, .L51
 500 009c 0EF10204 		add	r4, lr, #2
 501 00a0 57F82450 		ldr	r5, [r7, r4, lsl #2]
 502 00a4 25EA0606 		bic	r6, r5, r6
 503              	.LVL54:
ARM GAS  /var/folders/jn/652hmfdj2m99syhs9p34dk640000gq/T//ccYoQe7e.s 			page 17


 504 00a8 47F82460 		str	r6, [r7, r4, lsl #2]
 408:./Drivers_V1.0.4/STM32F1xx_HAL_Driver/Src/stm32f1xx_hal_gpio.c ****           
 409:./Drivers_V1.0.4/STM32F1xx_HAL_Driver/Src/stm32f1xx_hal_gpio.c ****         /* Clear EXTI line configuration */
 410:./Drivers_V1.0.4/STM32F1xx_HAL_Driver/Src/stm32f1xx_hal_gpio.c ****         CLEAR_BIT(EXTI->IMR, (uint32_t)iocurrent);
 505              		.loc 1 410 0
 506 00ac 0A4C     		ldr	r4, .L51+8
 507 00ae 2568     		ldr	r5, [r4]
 508 00b0 1D40     		ands	r5, r5, r3
 509 00b2 2560     		str	r5, [r4]
 411:./Drivers_V1.0.4/STM32F1xx_HAL_Driver/Src/stm32f1xx_hal_gpio.c ****         CLEAR_BIT(EXTI->EMR, (uint32_t)iocurrent);
 510              		.loc 1 411 0
 511 00b4 6568     		ldr	r5, [r4, #4]
 512 00b6 1D40     		ands	r5, r5, r3
 513 00b8 6560     		str	r5, [r4, #4]
 412:./Drivers_V1.0.4/STM32F1xx_HAL_Driver/Src/stm32f1xx_hal_gpio.c ****         
 413:./Drivers_V1.0.4/STM32F1xx_HAL_Driver/Src/stm32f1xx_hal_gpio.c ****         /* Clear Rising Falling edge configuration */
 414:./Drivers_V1.0.4/STM32F1xx_HAL_Driver/Src/stm32f1xx_hal_gpio.c ****         CLEAR_BIT(EXTI->RTSR, (uint32_t)iocurrent);
 514              		.loc 1 414 0
 515 00ba A568     		ldr	r5, [r4, #8]
 516 00bc 1D40     		ands	r5, r5, r3
 517 00be A560     		str	r5, [r4, #8]
 415:./Drivers_V1.0.4/STM32F1xx_HAL_Driver/Src/stm32f1xx_hal_gpio.c ****         CLEAR_BIT(EXTI->FTSR, (uint32_t)iocurrent);
 518              		.loc 1 415 0
 519 00c0 E568     		ldr	r5, [r4, #12]
 520 00c2 2B40     		ands	r3, r3, r5
 521              	.LVL55:
 522 00c4 E360     		str	r3, [r4, #12]
 523              	.LVL56:
 524              	.L39:
 416:./Drivers_V1.0.4/STM32F1xx_HAL_Driver/Src/stm32f1xx_hal_gpio.c ****       }
 417:./Drivers_V1.0.4/STM32F1xx_HAL_Driver/Src/stm32f1xx_hal_gpio.c ****     }
 418:./Drivers_V1.0.4/STM32F1xx_HAL_Driver/Src/stm32f1xx_hal_gpio.c ****     
 419:./Drivers_V1.0.4/STM32F1xx_HAL_Driver/Src/stm32f1xx_hal_gpio.c ****     position++;
 525              		.loc 1 419 0
 526 00c6 0132     		adds	r2, r2, #1
 527              	.LVL57:
 528              	.L38:
 380:./Drivers_V1.0.4/STM32F1xx_HAL_Driver/Src/stm32f1xx_hal_gpio.c ****   {
 529              		.loc 1 380 0
 530 00c8 31FA02F3 		lsrs	r3, r1, r2
 531 00cc 9BD1     		bne	.L45
 420:./Drivers_V1.0.4/STM32F1xx_HAL_Driver/Src/stm32f1xx_hal_gpio.c ****   }
 421:./Drivers_V1.0.4/STM32F1xx_HAL_Driver/Src/stm32f1xx_hal_gpio.c **** }
 532              		.loc 1 421 0
 533 00ce F0BD     		pop	{r4, r5, r6, r7, pc}
 534              	.L52:
 535              		.align	2
 536              	.L51:
 537 00d0 00000140 		.word	1073807360
 538 00d4 00080140 		.word	1073809408
 539 00d8 00040140 		.word	1073808384
 540              		.cfi_endproc
 541              	.LFE65:
 543              		.section	.text.HAL_GPIO_ReadPin,"ax",%progbits
 544              		.align	2
 545              		.global	HAL_GPIO_ReadPin
 546              		.thumb
ARM GAS  /var/folders/jn/652hmfdj2m99syhs9p34dk640000gq/T//ccYoQe7e.s 			page 18


 547              		.thumb_func
 549              	HAL_GPIO_ReadPin:
 550              	.LFB66:
 422:./Drivers_V1.0.4/STM32F1xx_HAL_Driver/Src/stm32f1xx_hal_gpio.c **** 
 423:./Drivers_V1.0.4/STM32F1xx_HAL_Driver/Src/stm32f1xx_hal_gpio.c **** /**
 424:./Drivers_V1.0.4/STM32F1xx_HAL_Driver/Src/stm32f1xx_hal_gpio.c ****   * @}
 425:./Drivers_V1.0.4/STM32F1xx_HAL_Driver/Src/stm32f1xx_hal_gpio.c ****   */
 426:./Drivers_V1.0.4/STM32F1xx_HAL_Driver/Src/stm32f1xx_hal_gpio.c **** 
 427:./Drivers_V1.0.4/STM32F1xx_HAL_Driver/Src/stm32f1xx_hal_gpio.c **** /** @defgroup GPIO_Exported_Functions_Group2 IO operation functions 
 428:./Drivers_V1.0.4/STM32F1xx_HAL_Driver/Src/stm32f1xx_hal_gpio.c ****  *  @brief   GPIO Read and Write 
 429:./Drivers_V1.0.4/STM32F1xx_HAL_Driver/Src/stm32f1xx_hal_gpio.c ****  *
 430:./Drivers_V1.0.4/STM32F1xx_HAL_Driver/Src/stm32f1xx_hal_gpio.c **** @verbatim   
 431:./Drivers_V1.0.4/STM32F1xx_HAL_Driver/Src/stm32f1xx_hal_gpio.c ****  ===============================================================================
 432:./Drivers_V1.0.4/STM32F1xx_HAL_Driver/Src/stm32f1xx_hal_gpio.c ****                        ##### IO operation functions #####
 433:./Drivers_V1.0.4/STM32F1xx_HAL_Driver/Src/stm32f1xx_hal_gpio.c ****  ===============================================================================
 434:./Drivers_V1.0.4/STM32F1xx_HAL_Driver/Src/stm32f1xx_hal_gpio.c ****   [..]
 435:./Drivers_V1.0.4/STM32F1xx_HAL_Driver/Src/stm32f1xx_hal_gpio.c ****     This subsection provides a set of functions allowing to manage the GPIOs.
 436:./Drivers_V1.0.4/STM32F1xx_HAL_Driver/Src/stm32f1xx_hal_gpio.c **** 
 437:./Drivers_V1.0.4/STM32F1xx_HAL_Driver/Src/stm32f1xx_hal_gpio.c **** @endverbatim
 438:./Drivers_V1.0.4/STM32F1xx_HAL_Driver/Src/stm32f1xx_hal_gpio.c ****   * @{
 439:./Drivers_V1.0.4/STM32F1xx_HAL_Driver/Src/stm32f1xx_hal_gpio.c ****   */
 440:./Drivers_V1.0.4/STM32F1xx_HAL_Driver/Src/stm32f1xx_hal_gpio.c **** /**
 441:./Drivers_V1.0.4/STM32F1xx_HAL_Driver/Src/stm32f1xx_hal_gpio.c ****   * @brief  Reads the specified input port pin.
 442:./Drivers_V1.0.4/STM32F1xx_HAL_Driver/Src/stm32f1xx_hal_gpio.c ****   * @param  GPIOx: where x can be (A..G depending on device used) to select the GPIO peripheral
 443:./Drivers_V1.0.4/STM32F1xx_HAL_Driver/Src/stm32f1xx_hal_gpio.c ****   * @param  GPIO_Pin: specifies the port bit to read.
 444:./Drivers_V1.0.4/STM32F1xx_HAL_Driver/Src/stm32f1xx_hal_gpio.c ****   *         This parameter can be GPIO_PIN_x where x can be (0..15).
 445:./Drivers_V1.0.4/STM32F1xx_HAL_Driver/Src/stm32f1xx_hal_gpio.c ****   * @retval The input port pin value.
 446:./Drivers_V1.0.4/STM32F1xx_HAL_Driver/Src/stm32f1xx_hal_gpio.c ****   */
 447:./Drivers_V1.0.4/STM32F1xx_HAL_Driver/Src/stm32f1xx_hal_gpio.c **** GPIO_PinState HAL_GPIO_ReadPin(GPIO_TypeDef* GPIOx, uint16_t GPIO_Pin)
 448:./Drivers_V1.0.4/STM32F1xx_HAL_Driver/Src/stm32f1xx_hal_gpio.c **** {
 551              		.loc 1 448 0
 552              		.cfi_startproc
 553              		@ args = 0, pretend = 0, frame = 0
 554              		@ frame_needed = 0, uses_anonymous_args = 0
 555              		@ link register save eliminated.
 556              	.LVL58:
 449:./Drivers_V1.0.4/STM32F1xx_HAL_Driver/Src/stm32f1xx_hal_gpio.c ****   GPIO_PinState bitstatus;
 450:./Drivers_V1.0.4/STM32F1xx_HAL_Driver/Src/stm32f1xx_hal_gpio.c **** 
 451:./Drivers_V1.0.4/STM32F1xx_HAL_Driver/Src/stm32f1xx_hal_gpio.c ****   /* Check the parameters */
 452:./Drivers_V1.0.4/STM32F1xx_HAL_Driver/Src/stm32f1xx_hal_gpio.c ****   assert_param(IS_GPIO_PIN(GPIO_Pin));
 453:./Drivers_V1.0.4/STM32F1xx_HAL_Driver/Src/stm32f1xx_hal_gpio.c **** 
 454:./Drivers_V1.0.4/STM32F1xx_HAL_Driver/Src/stm32f1xx_hal_gpio.c ****   if ((GPIOx->IDR & GPIO_Pin) != (uint32_t)GPIO_PIN_RESET)
 557              		.loc 1 454 0
 558 0000 8368     		ldr	r3, [r0, #8]
 559 0002 1942     		tst	r1, r3
 560 0004 01D0     		beq	.L55
 455:./Drivers_V1.0.4/STM32F1xx_HAL_Driver/Src/stm32f1xx_hal_gpio.c ****   {
 456:./Drivers_V1.0.4/STM32F1xx_HAL_Driver/Src/stm32f1xx_hal_gpio.c ****     bitstatus = GPIO_PIN_SET;
 561              		.loc 1 456 0
 562 0006 0120     		movs	r0, #1
 563              	.LVL59:
 564 0008 7047     		bx	lr
 565              	.LVL60:
 566              	.L55:
 457:./Drivers_V1.0.4/STM32F1xx_HAL_Driver/Src/stm32f1xx_hal_gpio.c ****   }
 458:./Drivers_V1.0.4/STM32F1xx_HAL_Driver/Src/stm32f1xx_hal_gpio.c ****   else
 459:./Drivers_V1.0.4/STM32F1xx_HAL_Driver/Src/stm32f1xx_hal_gpio.c ****   {
ARM GAS  /var/folders/jn/652hmfdj2m99syhs9p34dk640000gq/T//ccYoQe7e.s 			page 19


 460:./Drivers_V1.0.4/STM32F1xx_HAL_Driver/Src/stm32f1xx_hal_gpio.c ****     bitstatus = GPIO_PIN_RESET;
 567              		.loc 1 460 0
 568 000a 0020     		movs	r0, #0
 569              	.LVL61:
 461:./Drivers_V1.0.4/STM32F1xx_HAL_Driver/Src/stm32f1xx_hal_gpio.c ****   }
 462:./Drivers_V1.0.4/STM32F1xx_HAL_Driver/Src/stm32f1xx_hal_gpio.c ****   return bitstatus;
 463:./Drivers_V1.0.4/STM32F1xx_HAL_Driver/Src/stm32f1xx_hal_gpio.c **** }
 570              		.loc 1 463 0
 571 000c 7047     		bx	lr
 572              		.cfi_endproc
 573              	.LFE66:
 575 000e 00BF     		.section	.text.HAL_GPIO_WritePin,"ax",%progbits
 576              		.align	2
 577              		.global	HAL_GPIO_WritePin
 578              		.thumb
 579              		.thumb_func
 581              	HAL_GPIO_WritePin:
 582              	.LFB67:
 464:./Drivers_V1.0.4/STM32F1xx_HAL_Driver/Src/stm32f1xx_hal_gpio.c **** 
 465:./Drivers_V1.0.4/STM32F1xx_HAL_Driver/Src/stm32f1xx_hal_gpio.c **** /**
 466:./Drivers_V1.0.4/STM32F1xx_HAL_Driver/Src/stm32f1xx_hal_gpio.c ****   * @brief  Sets or clears the selected data port bit.
 467:./Drivers_V1.0.4/STM32F1xx_HAL_Driver/Src/stm32f1xx_hal_gpio.c ****   * 
 468:./Drivers_V1.0.4/STM32F1xx_HAL_Driver/Src/stm32f1xx_hal_gpio.c ****   * @note   This function uses GPIOx_BSRR register to allow atomic read/modify 
 469:./Drivers_V1.0.4/STM32F1xx_HAL_Driver/Src/stm32f1xx_hal_gpio.c ****   *         accesses. In this way, there is no risk of an IRQ occurring between
 470:./Drivers_V1.0.4/STM32F1xx_HAL_Driver/Src/stm32f1xx_hal_gpio.c ****   *         the read and the modify access.
 471:./Drivers_V1.0.4/STM32F1xx_HAL_Driver/Src/stm32f1xx_hal_gpio.c ****   *               
 472:./Drivers_V1.0.4/STM32F1xx_HAL_Driver/Src/stm32f1xx_hal_gpio.c ****   * @param  GPIOx: where x can be (A..G depending on device used) to select the GPIO peripheral
 473:./Drivers_V1.0.4/STM32F1xx_HAL_Driver/Src/stm32f1xx_hal_gpio.c ****   * @param  GPIO_Pin: specifies the port bit to be written.
 474:./Drivers_V1.0.4/STM32F1xx_HAL_Driver/Src/stm32f1xx_hal_gpio.c ****   *          This parameter can be one of GPIO_PIN_x where x can be (0..15).
 475:./Drivers_V1.0.4/STM32F1xx_HAL_Driver/Src/stm32f1xx_hal_gpio.c ****   * @param  PinState: specifies the value to be written to the selected bit.
 476:./Drivers_V1.0.4/STM32F1xx_HAL_Driver/Src/stm32f1xx_hal_gpio.c ****   *          This parameter can be one of the GPIO_PinState enum values:
 477:./Drivers_V1.0.4/STM32F1xx_HAL_Driver/Src/stm32f1xx_hal_gpio.c ****   *            @arg GPIO_BIT_RESET: to clear the port pin
 478:./Drivers_V1.0.4/STM32F1xx_HAL_Driver/Src/stm32f1xx_hal_gpio.c ****   *            @arg GPIO_BIT_SET: to set the port pin
 479:./Drivers_V1.0.4/STM32F1xx_HAL_Driver/Src/stm32f1xx_hal_gpio.c ****   * @retval None
 480:./Drivers_V1.0.4/STM32F1xx_HAL_Driver/Src/stm32f1xx_hal_gpio.c ****   */
 481:./Drivers_V1.0.4/STM32F1xx_HAL_Driver/Src/stm32f1xx_hal_gpio.c **** void HAL_GPIO_WritePin(GPIO_TypeDef* GPIOx, uint16_t GPIO_Pin, GPIO_PinState PinState)
 482:./Drivers_V1.0.4/STM32F1xx_HAL_Driver/Src/stm32f1xx_hal_gpio.c **** {
 583              		.loc 1 482 0
 584              		.cfi_startproc
 585              		@ args = 0, pretend = 0, frame = 0
 586              		@ frame_needed = 0, uses_anonymous_args = 0
 587              		@ link register save eliminated.
 588              	.LVL62:
 483:./Drivers_V1.0.4/STM32F1xx_HAL_Driver/Src/stm32f1xx_hal_gpio.c ****   /* Check the parameters */
 484:./Drivers_V1.0.4/STM32F1xx_HAL_Driver/Src/stm32f1xx_hal_gpio.c ****   assert_param(IS_GPIO_PIN(GPIO_Pin));
 485:./Drivers_V1.0.4/STM32F1xx_HAL_Driver/Src/stm32f1xx_hal_gpio.c ****   assert_param(IS_GPIO_PIN_ACTION(PinState));
 486:./Drivers_V1.0.4/STM32F1xx_HAL_Driver/Src/stm32f1xx_hal_gpio.c **** 
 487:./Drivers_V1.0.4/STM32F1xx_HAL_Driver/Src/stm32f1xx_hal_gpio.c ****   if(PinState != GPIO_PIN_RESET)
 589              		.loc 1 487 0
 590 0000 0AB1     		cbz	r2, .L57
 488:./Drivers_V1.0.4/STM32F1xx_HAL_Driver/Src/stm32f1xx_hal_gpio.c ****   {
 489:./Drivers_V1.0.4/STM32F1xx_HAL_Driver/Src/stm32f1xx_hal_gpio.c ****     GPIOx->BSRR = GPIO_Pin;
 591              		.loc 1 489 0
 592 0002 0161     		str	r1, [r0, #16]
 593 0004 7047     		bx	lr
 594              	.L57:
 490:./Drivers_V1.0.4/STM32F1xx_HAL_Driver/Src/stm32f1xx_hal_gpio.c ****   }
ARM GAS  /var/folders/jn/652hmfdj2m99syhs9p34dk640000gq/T//ccYoQe7e.s 			page 20


 491:./Drivers_V1.0.4/STM32F1xx_HAL_Driver/Src/stm32f1xx_hal_gpio.c ****   else
 492:./Drivers_V1.0.4/STM32F1xx_HAL_Driver/Src/stm32f1xx_hal_gpio.c ****   {
 493:./Drivers_V1.0.4/STM32F1xx_HAL_Driver/Src/stm32f1xx_hal_gpio.c ****     GPIOx->BSRR = (uint32_t)GPIO_Pin << 16;
 595              		.loc 1 493 0
 596 0006 0904     		lsls	r1, r1, #16
 597              	.LVL63:
 598 0008 0161     		str	r1, [r0, #16]
 599 000a 7047     		bx	lr
 600              		.cfi_endproc
 601              	.LFE67:
 603              		.section	.text.HAL_GPIO_TogglePin,"ax",%progbits
 604              		.align	2
 605              		.global	HAL_GPIO_TogglePin
 606              		.thumb
 607              		.thumb_func
 609              	HAL_GPIO_TogglePin:
 610              	.LFB68:
 494:./Drivers_V1.0.4/STM32F1xx_HAL_Driver/Src/stm32f1xx_hal_gpio.c ****   }
 495:./Drivers_V1.0.4/STM32F1xx_HAL_Driver/Src/stm32f1xx_hal_gpio.c **** }
 496:./Drivers_V1.0.4/STM32F1xx_HAL_Driver/Src/stm32f1xx_hal_gpio.c **** 
 497:./Drivers_V1.0.4/STM32F1xx_HAL_Driver/Src/stm32f1xx_hal_gpio.c **** /**
 498:./Drivers_V1.0.4/STM32F1xx_HAL_Driver/Src/stm32f1xx_hal_gpio.c ****   * @brief  Toggles the specified GPIO pin
 499:./Drivers_V1.0.4/STM32F1xx_HAL_Driver/Src/stm32f1xx_hal_gpio.c ****   * @param  GPIOx: where x can be (A..G depending on device used) to select the GPIO peripheral 
 500:./Drivers_V1.0.4/STM32F1xx_HAL_Driver/Src/stm32f1xx_hal_gpio.c ****   * @param  GPIO_Pin: Specifies the pins to be toggled.
 501:./Drivers_V1.0.4/STM32F1xx_HAL_Driver/Src/stm32f1xx_hal_gpio.c ****   * @retval None
 502:./Drivers_V1.0.4/STM32F1xx_HAL_Driver/Src/stm32f1xx_hal_gpio.c ****   */
 503:./Drivers_V1.0.4/STM32F1xx_HAL_Driver/Src/stm32f1xx_hal_gpio.c **** void HAL_GPIO_TogglePin(GPIO_TypeDef* GPIOx, uint16_t GPIO_Pin)
 504:./Drivers_V1.0.4/STM32F1xx_HAL_Driver/Src/stm32f1xx_hal_gpio.c **** {
 611              		.loc 1 504 0
 612              		.cfi_startproc
 613              		@ args = 0, pretend = 0, frame = 0
 614              		@ frame_needed = 0, uses_anonymous_args = 0
 615              		@ link register save eliminated.
 616              	.LVL64:
 505:./Drivers_V1.0.4/STM32F1xx_HAL_Driver/Src/stm32f1xx_hal_gpio.c ****   /* Check the parameters */
 506:./Drivers_V1.0.4/STM32F1xx_HAL_Driver/Src/stm32f1xx_hal_gpio.c ****   assert_param(IS_GPIO_PIN(GPIO_Pin));
 507:./Drivers_V1.0.4/STM32F1xx_HAL_Driver/Src/stm32f1xx_hal_gpio.c **** 
 508:./Drivers_V1.0.4/STM32F1xx_HAL_Driver/Src/stm32f1xx_hal_gpio.c ****   GPIOx->ODR ^= GPIO_Pin;
 617              		.loc 1 508 0
 618 0000 C368     		ldr	r3, [r0, #12]
 619 0002 5940     		eors	r1, r1, r3
 620              	.LVL65:
 621 0004 C160     		str	r1, [r0, #12]
 622 0006 7047     		bx	lr
 623              		.cfi_endproc
 624              	.LFE68:
 626              		.section	.text.HAL_GPIO_LockPin,"ax",%progbits
 627              		.align	2
 628              		.global	HAL_GPIO_LockPin
 629              		.thumb
 630              		.thumb_func
 632              	HAL_GPIO_LockPin:
 633              	.LFB69:
 509:./Drivers_V1.0.4/STM32F1xx_HAL_Driver/Src/stm32f1xx_hal_gpio.c **** }
 510:./Drivers_V1.0.4/STM32F1xx_HAL_Driver/Src/stm32f1xx_hal_gpio.c **** 
 511:./Drivers_V1.0.4/STM32F1xx_HAL_Driver/Src/stm32f1xx_hal_gpio.c **** /**
 512:./Drivers_V1.0.4/STM32F1xx_HAL_Driver/Src/stm32f1xx_hal_gpio.c **** * @brief  Locks GPIO Pins configuration registers.
ARM GAS  /var/folders/jn/652hmfdj2m99syhs9p34dk640000gq/T//ccYoQe7e.s 			page 21


 513:./Drivers_V1.0.4/STM32F1xx_HAL_Driver/Src/stm32f1xx_hal_gpio.c **** * @note   The locking mechanism allows the IO configuration to be frozen. When the LOCK sequence
 514:./Drivers_V1.0.4/STM32F1xx_HAL_Driver/Src/stm32f1xx_hal_gpio.c **** *         has been applied on a port bit, it is no longer possible to modify the value of the port 
 515:./Drivers_V1.0.4/STM32F1xx_HAL_Driver/Src/stm32f1xx_hal_gpio.c **** *         the next reset.
 516:./Drivers_V1.0.4/STM32F1xx_HAL_Driver/Src/stm32f1xx_hal_gpio.c **** * @param  GPIOx: where x can be (A..G depending on device used) to select the GPIO peripheral
 517:./Drivers_V1.0.4/STM32F1xx_HAL_Driver/Src/stm32f1xx_hal_gpio.c **** * @param  GPIO_Pin: specifies the port bit to be locked.
 518:./Drivers_V1.0.4/STM32F1xx_HAL_Driver/Src/stm32f1xx_hal_gpio.c **** *         This parameter can be any combination of GPIO_Pin_x where x can be (0..15).
 519:./Drivers_V1.0.4/STM32F1xx_HAL_Driver/Src/stm32f1xx_hal_gpio.c **** * @retval None
 520:./Drivers_V1.0.4/STM32F1xx_HAL_Driver/Src/stm32f1xx_hal_gpio.c **** */
 521:./Drivers_V1.0.4/STM32F1xx_HAL_Driver/Src/stm32f1xx_hal_gpio.c **** HAL_StatusTypeDef HAL_GPIO_LockPin(GPIO_TypeDef* GPIOx, uint16_t GPIO_Pin)
 522:./Drivers_V1.0.4/STM32F1xx_HAL_Driver/Src/stm32f1xx_hal_gpio.c **** {
 634              		.loc 1 522 0
 635              		.cfi_startproc
 636              		@ args = 0, pretend = 0, frame = 8
 637              		@ frame_needed = 0, uses_anonymous_args = 0
 638              		@ link register save eliminated.
 639              	.LVL66:
 640 0000 82B0     		sub	sp, sp, #8
 641              	.LCFI4:
 642              		.cfi_def_cfa_offset 8
 523:./Drivers_V1.0.4/STM32F1xx_HAL_Driver/Src/stm32f1xx_hal_gpio.c ****   __IO uint32_t tmp = GPIO_LCKR_LCKK;
 643              		.loc 1 523 0
 644 0002 4FF48033 		mov	r3, #65536
 645 0006 0193     		str	r3, [sp, #4]
 524:./Drivers_V1.0.4/STM32F1xx_HAL_Driver/Src/stm32f1xx_hal_gpio.c **** 
 525:./Drivers_V1.0.4/STM32F1xx_HAL_Driver/Src/stm32f1xx_hal_gpio.c ****   /* Check the parameters */
 526:./Drivers_V1.0.4/STM32F1xx_HAL_Driver/Src/stm32f1xx_hal_gpio.c ****   assert_param(IS_GPIO_LOCK_INSTANCE(GPIOx));
 527:./Drivers_V1.0.4/STM32F1xx_HAL_Driver/Src/stm32f1xx_hal_gpio.c ****   assert_param(IS_GPIO_PIN(GPIO_Pin));
 528:./Drivers_V1.0.4/STM32F1xx_HAL_Driver/Src/stm32f1xx_hal_gpio.c **** 
 529:./Drivers_V1.0.4/STM32F1xx_HAL_Driver/Src/stm32f1xx_hal_gpio.c ****   /* Apply lock key write sequence */
 530:./Drivers_V1.0.4/STM32F1xx_HAL_Driver/Src/stm32f1xx_hal_gpio.c ****   SET_BIT(tmp, GPIO_Pin);
 646              		.loc 1 530 0
 647 0008 019B     		ldr	r3, [sp, #4]
 648 000a 0B43     		orrs	r3, r3, r1
 649 000c 0193     		str	r3, [sp, #4]
 531:./Drivers_V1.0.4/STM32F1xx_HAL_Driver/Src/stm32f1xx_hal_gpio.c ****   /* Set LCKx bit(s): LCKK='1' + LCK[15-0] */
 532:./Drivers_V1.0.4/STM32F1xx_HAL_Driver/Src/stm32f1xx_hal_gpio.c ****   GPIOx->LCKR = tmp;
 650              		.loc 1 532 0
 651 000e 019B     		ldr	r3, [sp, #4]
 652 0010 8361     		str	r3, [r0, #24]
 533:./Drivers_V1.0.4/STM32F1xx_HAL_Driver/Src/stm32f1xx_hal_gpio.c ****   /* Reset LCKx bit(s): LCKK='0' + LCK[15-0] */
 534:./Drivers_V1.0.4/STM32F1xx_HAL_Driver/Src/stm32f1xx_hal_gpio.c ****   GPIOx->LCKR = GPIO_Pin;
 653              		.loc 1 534 0
 654 0012 8161     		str	r1, [r0, #24]
 535:./Drivers_V1.0.4/STM32F1xx_HAL_Driver/Src/stm32f1xx_hal_gpio.c ****   /* Set LCKx bit(s): LCKK='1' + LCK[15-0] */
 536:./Drivers_V1.0.4/STM32F1xx_HAL_Driver/Src/stm32f1xx_hal_gpio.c ****   GPIOx->LCKR = tmp;
 655              		.loc 1 536 0
 656 0014 019B     		ldr	r3, [sp, #4]
 657 0016 8361     		str	r3, [r0, #24]
 537:./Drivers_V1.0.4/STM32F1xx_HAL_Driver/Src/stm32f1xx_hal_gpio.c ****   /* Read LCKK bit*/
 538:./Drivers_V1.0.4/STM32F1xx_HAL_Driver/Src/stm32f1xx_hal_gpio.c ****   tmp = GPIOx->LCKR;
 658              		.loc 1 538 0
 659 0018 8369     		ldr	r3, [r0, #24]
 660 001a 0193     		str	r3, [sp, #4]
 539:./Drivers_V1.0.4/STM32F1xx_HAL_Driver/Src/stm32f1xx_hal_gpio.c **** 
 540:./Drivers_V1.0.4/STM32F1xx_HAL_Driver/Src/stm32f1xx_hal_gpio.c ****   if((uint32_t)(GPIOx->LCKR & GPIO_LCKR_LCKK))
 661              		.loc 1 540 0
 662 001c 8369     		ldr	r3, [r0, #24]
ARM GAS  /var/folders/jn/652hmfdj2m99syhs9p34dk640000gq/T//ccYoQe7e.s 			page 22


 663 001e 13F4803F 		tst	r3, #65536
 664 0022 01D0     		beq	.L62
 541:./Drivers_V1.0.4/STM32F1xx_HAL_Driver/Src/stm32f1xx_hal_gpio.c ****   {
 542:./Drivers_V1.0.4/STM32F1xx_HAL_Driver/Src/stm32f1xx_hal_gpio.c ****     return HAL_OK;
 665              		.loc 1 542 0
 666 0024 0020     		movs	r0, #0
 667              	.LVL67:
 668 0026 00E0     		b	.L61
 669              	.LVL68:
 670              	.L62:
 543:./Drivers_V1.0.4/STM32F1xx_HAL_Driver/Src/stm32f1xx_hal_gpio.c ****   }
 544:./Drivers_V1.0.4/STM32F1xx_HAL_Driver/Src/stm32f1xx_hal_gpio.c ****   else
 545:./Drivers_V1.0.4/STM32F1xx_HAL_Driver/Src/stm32f1xx_hal_gpio.c ****   {
 546:./Drivers_V1.0.4/STM32F1xx_HAL_Driver/Src/stm32f1xx_hal_gpio.c ****     return HAL_ERROR;
 671              		.loc 1 546 0
 672 0028 0120     		movs	r0, #1
 673              	.LVL69:
 674              	.L61:
 547:./Drivers_V1.0.4/STM32F1xx_HAL_Driver/Src/stm32f1xx_hal_gpio.c ****   }
 548:./Drivers_V1.0.4/STM32F1xx_HAL_Driver/Src/stm32f1xx_hal_gpio.c **** }
 675              		.loc 1 548 0
 676 002a 02B0     		add	sp, sp, #8
 677              	.LCFI5:
 678              		.cfi_def_cfa_offset 0
 679              		@ sp needed
 680 002c 7047     		bx	lr
 681              		.cfi_endproc
 682              	.LFE69:
 684 002e 00BF     		.section	.text.HAL_GPIO_EXTI_Callback,"ax",%progbits
 685              		.align	2
 686              		.weak	HAL_GPIO_EXTI_Callback
 687              		.thumb
 688              		.thumb_func
 690              	HAL_GPIO_EXTI_Callback:
 691              	.LFB71:
 549:./Drivers_V1.0.4/STM32F1xx_HAL_Driver/Src/stm32f1xx_hal_gpio.c **** 
 550:./Drivers_V1.0.4/STM32F1xx_HAL_Driver/Src/stm32f1xx_hal_gpio.c **** /**
 551:./Drivers_V1.0.4/STM32F1xx_HAL_Driver/Src/stm32f1xx_hal_gpio.c ****   * @brief This function handles EXTI interrupt request.
 552:./Drivers_V1.0.4/STM32F1xx_HAL_Driver/Src/stm32f1xx_hal_gpio.c ****   * @param GPIO_Pin: Specifies the pins connected EXTI line
 553:./Drivers_V1.0.4/STM32F1xx_HAL_Driver/Src/stm32f1xx_hal_gpio.c ****   * @retval None
 554:./Drivers_V1.0.4/STM32F1xx_HAL_Driver/Src/stm32f1xx_hal_gpio.c ****   */
 555:./Drivers_V1.0.4/STM32F1xx_HAL_Driver/Src/stm32f1xx_hal_gpio.c **** void HAL_GPIO_EXTI_IRQHandler(uint16_t GPIO_Pin)
 556:./Drivers_V1.0.4/STM32F1xx_HAL_Driver/Src/stm32f1xx_hal_gpio.c **** {
 557:./Drivers_V1.0.4/STM32F1xx_HAL_Driver/Src/stm32f1xx_hal_gpio.c ****   /* EXTI line interrupt detected */
 558:./Drivers_V1.0.4/STM32F1xx_HAL_Driver/Src/stm32f1xx_hal_gpio.c ****   if(__HAL_GPIO_EXTI_GET_IT(GPIO_Pin) != RESET) 
 559:./Drivers_V1.0.4/STM32F1xx_HAL_Driver/Src/stm32f1xx_hal_gpio.c ****   { 
 560:./Drivers_V1.0.4/STM32F1xx_HAL_Driver/Src/stm32f1xx_hal_gpio.c ****     __HAL_GPIO_EXTI_CLEAR_IT(GPIO_Pin);
 561:./Drivers_V1.0.4/STM32F1xx_HAL_Driver/Src/stm32f1xx_hal_gpio.c ****     HAL_GPIO_EXTI_Callback(GPIO_Pin);
 562:./Drivers_V1.0.4/STM32F1xx_HAL_Driver/Src/stm32f1xx_hal_gpio.c ****   }
 563:./Drivers_V1.0.4/STM32F1xx_HAL_Driver/Src/stm32f1xx_hal_gpio.c **** }
 564:./Drivers_V1.0.4/STM32F1xx_HAL_Driver/Src/stm32f1xx_hal_gpio.c **** 
 565:./Drivers_V1.0.4/STM32F1xx_HAL_Driver/Src/stm32f1xx_hal_gpio.c **** /**
 566:./Drivers_V1.0.4/STM32F1xx_HAL_Driver/Src/stm32f1xx_hal_gpio.c ****   * @brief  EXTI line detection callback
 567:./Drivers_V1.0.4/STM32F1xx_HAL_Driver/Src/stm32f1xx_hal_gpio.c ****   * @param GPIO_Pin: Specifies the pins connected EXTI line
 568:./Drivers_V1.0.4/STM32F1xx_HAL_Driver/Src/stm32f1xx_hal_gpio.c ****   * @retval None
 569:./Drivers_V1.0.4/STM32F1xx_HAL_Driver/Src/stm32f1xx_hal_gpio.c ****   */
 570:./Drivers_V1.0.4/STM32F1xx_HAL_Driver/Src/stm32f1xx_hal_gpio.c **** __weak void HAL_GPIO_EXTI_Callback(uint16_t GPIO_Pin)
ARM GAS  /var/folders/jn/652hmfdj2m99syhs9p34dk640000gq/T//ccYoQe7e.s 			page 23


 571:./Drivers_V1.0.4/STM32F1xx_HAL_Driver/Src/stm32f1xx_hal_gpio.c **** {
 692              		.loc 1 571 0
 693              		.cfi_startproc
 694              		@ args = 0, pretend = 0, frame = 0
 695              		@ frame_needed = 0, uses_anonymous_args = 0
 696              		@ link register save eliminated.
 697              	.LVL70:
 698 0000 7047     		bx	lr
 699              		.cfi_endproc
 700              	.LFE71:
 702 0002 00BF     		.section	.text.HAL_GPIO_EXTI_IRQHandler,"ax",%progbits
 703              		.align	2
 704              		.global	HAL_GPIO_EXTI_IRQHandler
 705              		.thumb
 706              		.thumb_func
 708              	HAL_GPIO_EXTI_IRQHandler:
 709              	.LFB70:
 556:./Drivers_V1.0.4/STM32F1xx_HAL_Driver/Src/stm32f1xx_hal_gpio.c ****   /* EXTI line interrupt detected */
 710              		.loc 1 556 0
 711              		.cfi_startproc
 712              		@ args = 0, pretend = 0, frame = 0
 713              		@ frame_needed = 0, uses_anonymous_args = 0
 714              	.LVL71:
 556:./Drivers_V1.0.4/STM32F1xx_HAL_Driver/Src/stm32f1xx_hal_gpio.c ****   /* EXTI line interrupt detected */
 715              		.loc 1 556 0
 716 0000 08B5     		push	{r3, lr}
 717              	.LCFI6:
 718              		.cfi_def_cfa_offset 8
 719              		.cfi_offset 3, -8
 720              		.cfi_offset 14, -4
 558:./Drivers_V1.0.4/STM32F1xx_HAL_Driver/Src/stm32f1xx_hal_gpio.c ****   { 
 721              		.loc 1 558 0
 722 0002 044B     		ldr	r3, .L68
 723 0004 5B69     		ldr	r3, [r3, #20]
 724 0006 0342     		tst	r3, r0
 725 0008 03D0     		beq	.L65
 560:./Drivers_V1.0.4/STM32F1xx_HAL_Driver/Src/stm32f1xx_hal_gpio.c ****     HAL_GPIO_EXTI_Callback(GPIO_Pin);
 726              		.loc 1 560 0
 727 000a 024B     		ldr	r3, .L68
 728 000c 5861     		str	r0, [r3, #20]
 561:./Drivers_V1.0.4/STM32F1xx_HAL_Driver/Src/stm32f1xx_hal_gpio.c ****   }
 729              		.loc 1 561 0
 730 000e FFF7FEFF 		bl	HAL_GPIO_EXTI_Callback
 731              	.LVL72:
 732              	.L65:
 733 0012 08BD     		pop	{r3, pc}
 734              	.L69:
 735              		.align	2
 736              	.L68:
 737 0014 00040140 		.word	1073808384
 738              		.cfi_endproc
 739              	.LFE70:
 741              		.text
 742              	.Letext0:
 743              		.file 2 "/usr/local/Cellar/gcc-arm-none-eabi/20160928/arm-none-eabi/include/machine/_default_types
 744              		.file 3 "/usr/local/Cellar/gcc-arm-none-eabi/20160928/arm-none-eabi/include/sys/_stdint.h"
 745              		.file 4 "./Drivers_V1.0.4/CMSIS/Device/ST/STM32F1xx/Include/stm32f103xb.h"
ARM GAS  /var/folders/jn/652hmfdj2m99syhs9p34dk640000gq/T//ccYoQe7e.s 			page 24


 746              		.file 5 "./Drivers_V1.0.4/CMSIS/Device/ST/STM32F1xx/Include/stm32f1xx.h"
 747              		.file 6 "./Drivers_V1.0.4/STM32F1xx_HAL_Driver/Inc/stm32f1xx_hal_def.h"
 748              		.file 7 "./Drivers_V1.0.4/STM32F1xx_HAL_Driver/Inc/stm32f1xx_hal_gpio.h"
 749              		.file 8 "./Drivers_V1.0.4/CMSIS/Include/core_cm3.h"
ARM GAS  /var/folders/jn/652hmfdj2m99syhs9p34dk640000gq/T//ccYoQe7e.s 			page 25

