ARM GAS  /var/folders/jn/652hmfdj2m99syhs9p34dk640000gq/T//ccCqcixk.s 			page 1


   1              		.syntax unified
   2              		.cpu cortex-m3
   3              		.fpu softvfp
   4              		.eabi_attribute 20, 1
   5              		.eabi_attribute 21, 1
   6              		.eabi_attribute 23, 3
   7              		.eabi_attribute 24, 1
   8              		.eabi_attribute 25, 1
   9              		.eabi_attribute 26, 1
  10              		.eabi_attribute 30, 1
  11              		.eabi_attribute 34, 1
  12              		.eabi_attribute 18, 4
  13              		.thumb
  14              		.syntax unified
  15              		.file	"stm32f1xx_hal_msp.c"
  16              		.text
  17              	.Ltext0:
  18              		.cfi_sections	.debug_frame
  19              		.section	.text.HAL_MspInit,"ax",%progbits
  20              		.align	2
  21              		.global	HAL_MspInit
  22              		.thumb
  23              		.thumb_func
  25              	HAL_MspInit:
  26              	.LFB64:
  27              		.file 1 "Src/stm32f1xx_hal_msp.c"
   1:Src/stm32f1xx_hal_msp.c **** /**
   2:Src/stm32f1xx_hal_msp.c ****   ******************************************************************************
   3:Src/stm32f1xx_hal_msp.c ****   * File Name          : stm32f1xx_hal_msp.c
   4:Src/stm32f1xx_hal_msp.c ****   * Description        : This file provides code for the MSP Initialization 
   5:Src/stm32f1xx_hal_msp.c ****   *                      and de-Initialization codes.
   6:Src/stm32f1xx_hal_msp.c ****   ******************************************************************************
   7:Src/stm32f1xx_hal_msp.c ****   *
   8:Src/stm32f1xx_hal_msp.c ****   * COPYRIGHT(c) 2017 STMicroelectronics
   9:Src/stm32f1xx_hal_msp.c ****   *
  10:Src/stm32f1xx_hal_msp.c ****   * Redistribution and use in source and binary forms, with or without modification,
  11:Src/stm32f1xx_hal_msp.c ****   * are permitted provided that the following conditions are met:
  12:Src/stm32f1xx_hal_msp.c ****   *   1. Redistributions of source code must retain the above copyright notice,
  13:Src/stm32f1xx_hal_msp.c ****   *      this list of conditions and the following disclaimer.
  14:Src/stm32f1xx_hal_msp.c ****   *   2. Redistributions in binary form must reproduce the above copyright notice,
  15:Src/stm32f1xx_hal_msp.c ****   *      this list of conditions and the following disclaimer in the documentation
  16:Src/stm32f1xx_hal_msp.c ****   *      and/or other materials provided with the distribution.
  17:Src/stm32f1xx_hal_msp.c ****   *   3. Neither the name of STMicroelectronics nor the names of its contributors
  18:Src/stm32f1xx_hal_msp.c ****   *      may be used to endorse or promote products derived from this software
  19:Src/stm32f1xx_hal_msp.c ****   *      without specific prior written permission.
  20:Src/stm32f1xx_hal_msp.c ****   *
  21:Src/stm32f1xx_hal_msp.c ****   * THIS SOFTWARE IS PROVIDED BY THE COPYRIGHT HOLDERS AND CONTRIBUTORS "AS IS"
  22:Src/stm32f1xx_hal_msp.c ****   * AND ANY EXPRESS OR IMPLIED WARRANTIES, INCLUDING, BUT NOT LIMITED TO, THE
  23:Src/stm32f1xx_hal_msp.c ****   * IMPLIED WARRANTIES OF MERCHANTABILITY AND FITNESS FOR A PARTICULAR PURPOSE ARE
  24:Src/stm32f1xx_hal_msp.c ****   * DISCLAIMED. IN NO EVENT SHALL THE COPYRIGHT HOLDER OR CONTRIBUTORS BE LIABLE
  25:Src/stm32f1xx_hal_msp.c ****   * FOR ANY DIRECT, INDIRECT, INCIDENTAL, SPECIAL, EXEMPLARY, OR CONSEQUENTIAL
  26:Src/stm32f1xx_hal_msp.c ****   * DAMAGES (INCLUDING, BUT NOT LIMITED TO, PROCUREMENT OF SUBSTITUTE GOODS OR
  27:Src/stm32f1xx_hal_msp.c ****   * SERVICES; LOSS OF USE, DATA, OR PROFITS; OR BUSINESS INTERRUPTION) HOWEVER
  28:Src/stm32f1xx_hal_msp.c ****   * CAUSED AND ON ANY THEORY OF LIABILITY, WHETHER IN CONTRACT, STRICT LIABILITY,
  29:Src/stm32f1xx_hal_msp.c ****   * OR TORT (INCLUDING NEGLIGENCE OR OTHERWISE) ARISING IN ANY WAY OUT OF THE USE
  30:Src/stm32f1xx_hal_msp.c ****   * OF THIS SOFTWARE, EVEN IF ADVISED OF THE POSSIBILITY OF SUCH DAMAGE.
  31:Src/stm32f1xx_hal_msp.c ****   *
ARM GAS  /var/folders/jn/652hmfdj2m99syhs9p34dk640000gq/T//ccCqcixk.s 			page 2


  32:Src/stm32f1xx_hal_msp.c ****   ******************************************************************************
  33:Src/stm32f1xx_hal_msp.c ****   */
  34:Src/stm32f1xx_hal_msp.c **** /* Includes ------------------------------------------------------------------*/
  35:Src/stm32f1xx_hal_msp.c **** #include "stm32f1xx_hal.h"
  36:Src/stm32f1xx_hal_msp.c **** 
  37:Src/stm32f1xx_hal_msp.c **** extern DMA_HandleTypeDef hdma_adc1;
  38:Src/stm32f1xx_hal_msp.c **** 
  39:Src/stm32f1xx_hal_msp.c **** extern void Error_Handler(void);
  40:Src/stm32f1xx_hal_msp.c **** /* USER CODE BEGIN 0 */
  41:Src/stm32f1xx_hal_msp.c **** 
  42:Src/stm32f1xx_hal_msp.c **** /* USER CODE END 0 */
  43:Src/stm32f1xx_hal_msp.c **** /**
  44:Src/stm32f1xx_hal_msp.c ****   * Initializes the Global MSP.
  45:Src/stm32f1xx_hal_msp.c ****   */
  46:Src/stm32f1xx_hal_msp.c **** void HAL_MspInit(void)
  47:Src/stm32f1xx_hal_msp.c **** {
  28              		.loc 1 47 0
  29              		.cfi_startproc
  30              		@ args = 0, pretend = 0, frame = 8
  31              		@ frame_needed = 0, uses_anonymous_args = 0
  32 0000 00B5     		push	{lr}
  33              	.LCFI0:
  34              		.cfi_def_cfa_offset 4
  35              		.cfi_offset 14, -4
  36 0002 83B0     		sub	sp, sp, #12
  37              	.LCFI1:
  38              		.cfi_def_cfa_offset 16
  39              	.LBB2:
  48:Src/stm32f1xx_hal_msp.c ****   /* USER CODE BEGIN MspInit 0 */
  49:Src/stm32f1xx_hal_msp.c **** 
  50:Src/stm32f1xx_hal_msp.c ****   /* USER CODE END MspInit 0 */
  51:Src/stm32f1xx_hal_msp.c **** 
  52:Src/stm32f1xx_hal_msp.c ****   __HAL_RCC_AFIO_CLK_ENABLE();
  40              		.loc 1 52 0
  41 0004 204B     		ldr	r3, .L3
  42 0006 9A69     		ldr	r2, [r3, #24]
  43 0008 42F00102 		orr	r2, r2, #1
  44 000c 9A61     		str	r2, [r3, #24]
  45 000e 9B69     		ldr	r3, [r3, #24]
  46 0010 03F00103 		and	r3, r3, #1
  47 0014 0193     		str	r3, [sp, #4]
  48 0016 019B     		ldr	r3, [sp, #4]
  49              	.LBE2:
  53:Src/stm32f1xx_hal_msp.c **** 
  54:Src/stm32f1xx_hal_msp.c ****   HAL_NVIC_SetPriorityGrouping(NVIC_PRIORITYGROUP_4);
  50              		.loc 1 54 0
  51 0018 0320     		movs	r0, #3
  52 001a FFF7FEFF 		bl	HAL_NVIC_SetPriorityGrouping
  53              	.LVL0:
  55:Src/stm32f1xx_hal_msp.c **** 
  56:Src/stm32f1xx_hal_msp.c ****   /* System interrupt init*/
  57:Src/stm32f1xx_hal_msp.c ****   /* MemoryManagement_IRQn interrupt configuration */
  58:Src/stm32f1xx_hal_msp.c ****   HAL_NVIC_SetPriority(MemoryManagement_IRQn, 0, 0);
  54              		.loc 1 58 0
  55 001e 0022     		movs	r2, #0
  56 0020 1146     		mov	r1, r2
  57 0022 6FF00B00 		mvn	r0, #11
ARM GAS  /var/folders/jn/652hmfdj2m99syhs9p34dk640000gq/T//ccCqcixk.s 			page 3


  58 0026 FFF7FEFF 		bl	HAL_NVIC_SetPriority
  59              	.LVL1:
  59:Src/stm32f1xx_hal_msp.c ****   /* BusFault_IRQn interrupt configuration */
  60:Src/stm32f1xx_hal_msp.c ****   HAL_NVIC_SetPriority(BusFault_IRQn, 0, 0);
  60              		.loc 1 60 0
  61 002a 0022     		movs	r2, #0
  62 002c 1146     		mov	r1, r2
  63 002e 6FF00A00 		mvn	r0, #10
  64 0032 FFF7FEFF 		bl	HAL_NVIC_SetPriority
  65              	.LVL2:
  61:Src/stm32f1xx_hal_msp.c ****   /* UsageFault_IRQn interrupt configuration */
  62:Src/stm32f1xx_hal_msp.c ****   HAL_NVIC_SetPriority(UsageFault_IRQn, 0, 0);
  66              		.loc 1 62 0
  67 0036 0022     		movs	r2, #0
  68 0038 1146     		mov	r1, r2
  69 003a 6FF00900 		mvn	r0, #9
  70 003e FFF7FEFF 		bl	HAL_NVIC_SetPriority
  71              	.LVL3:
  63:Src/stm32f1xx_hal_msp.c ****   /* SVCall_IRQn interrupt configuration */
  64:Src/stm32f1xx_hal_msp.c ****   HAL_NVIC_SetPriority(SVCall_IRQn, 0, 0);
  72              		.loc 1 64 0
  73 0042 0022     		movs	r2, #0
  74 0044 1146     		mov	r1, r2
  75 0046 6FF00400 		mvn	r0, #4
  76 004a FFF7FEFF 		bl	HAL_NVIC_SetPriority
  77              	.LVL4:
  65:Src/stm32f1xx_hal_msp.c ****   /* DebugMonitor_IRQn interrupt configuration */
  66:Src/stm32f1xx_hal_msp.c ****   HAL_NVIC_SetPriority(DebugMonitor_IRQn, 0, 0);
  78              		.loc 1 66 0
  79 004e 0022     		movs	r2, #0
  80 0050 1146     		mov	r1, r2
  81 0052 6FF00300 		mvn	r0, #3
  82 0056 FFF7FEFF 		bl	HAL_NVIC_SetPriority
  83              	.LVL5:
  67:Src/stm32f1xx_hal_msp.c ****   /* PendSV_IRQn interrupt configuration */
  68:Src/stm32f1xx_hal_msp.c ****   HAL_NVIC_SetPriority(PendSV_IRQn, 0, 0);
  84              		.loc 1 68 0
  85 005a 0022     		movs	r2, #0
  86 005c 1146     		mov	r1, r2
  87 005e 6FF00100 		mvn	r0, #1
  88 0062 FFF7FEFF 		bl	HAL_NVIC_SetPriority
  89              	.LVL6:
  69:Src/stm32f1xx_hal_msp.c ****   /* SysTick_IRQn interrupt configuration */
  70:Src/stm32f1xx_hal_msp.c ****   HAL_NVIC_SetPriority(SysTick_IRQn, 0, 0);
  90              		.loc 1 70 0
  91 0066 0022     		movs	r2, #0
  92 0068 1146     		mov	r1, r2
  93 006a 4FF0FF30 		mov	r0, #-1
  94 006e FFF7FEFF 		bl	HAL_NVIC_SetPriority
  95              	.LVL7:
  71:Src/stm32f1xx_hal_msp.c **** 
  72:Src/stm32f1xx_hal_msp.c ****     /**NOJTAG: JTAG-DP Disabled and SW-DP Enabled 
  73:Src/stm32f1xx_hal_msp.c ****     */
  74:Src/stm32f1xx_hal_msp.c ****   __HAL_AFIO_REMAP_SWJ_NOJTAG();
  96              		.loc 1 74 0
  97 0072 064A     		ldr	r2, .L3+4
  98 0074 5368     		ldr	r3, [r2, #4]
ARM GAS  /var/folders/jn/652hmfdj2m99syhs9p34dk640000gq/T//ccCqcixk.s 			page 4


  99 0076 23F0E063 		bic	r3, r3, #117440512
 100 007a 43F00073 		orr	r3, r3, #33554432
 101 007e 5360     		str	r3, [r2, #4]
  75:Src/stm32f1xx_hal_msp.c **** 
  76:Src/stm32f1xx_hal_msp.c ****   /* USER CODE BEGIN MspInit 1 */
  77:Src/stm32f1xx_hal_msp.c **** 
  78:Src/stm32f1xx_hal_msp.c ****   /* USER CODE END MspInit 1 */
  79:Src/stm32f1xx_hal_msp.c **** }
 102              		.loc 1 79 0
 103 0080 03B0     		add	sp, sp, #12
 104              	.LCFI2:
 105              		.cfi_def_cfa_offset 4
 106              		@ sp needed
 107 0082 5DF804FB 		ldr	pc, [sp], #4
 108              	.L4:
 109 0086 00BF     		.align	2
 110              	.L3:
 111 0088 00100240 		.word	1073876992
 112 008c 00000140 		.word	1073807360
 113              		.cfi_endproc
 114              	.LFE64:
 116              		.section	.text.HAL_ADC_MspInit,"ax",%progbits
 117              		.align	2
 118              		.global	HAL_ADC_MspInit
 119              		.thumb
 120              		.thumb_func
 122              	HAL_ADC_MspInit:
 123              	.LFB65:
  80:Src/stm32f1xx_hal_msp.c **** 
  81:Src/stm32f1xx_hal_msp.c **** void HAL_ADC_MspInit(ADC_HandleTypeDef* hadc)
  82:Src/stm32f1xx_hal_msp.c **** {
 124              		.loc 1 82 0
 125              		.cfi_startproc
 126              		@ args = 0, pretend = 0, frame = 24
 127              		@ frame_needed = 0, uses_anonymous_args = 0
 128              	.LVL8:
  83:Src/stm32f1xx_hal_msp.c **** 
  84:Src/stm32f1xx_hal_msp.c ****   GPIO_InitTypeDef GPIO_InitStruct;
  85:Src/stm32f1xx_hal_msp.c ****   if(hadc->Instance==ADC1)
 129              		.loc 1 85 0
 130 0000 0268     		ldr	r2, [r0]
 131 0002 1A4B     		ldr	r3, .L10
 132 0004 9A42     		cmp	r2, r3
 133 0006 30D1     		bne	.L9
  82:Src/stm32f1xx_hal_msp.c **** 
 134              		.loc 1 82 0
 135 0008 10B5     		push	{r4, lr}
 136              	.LCFI3:
 137              		.cfi_def_cfa_offset 8
 138              		.cfi_offset 4, -8
 139              		.cfi_offset 14, -4
 140 000a 86B0     		sub	sp, sp, #24
 141              	.LCFI4:
 142              		.cfi_def_cfa_offset 32
 143 000c 0446     		mov	r4, r0
 144              	.LBB3:
  86:Src/stm32f1xx_hal_msp.c ****   {
ARM GAS  /var/folders/jn/652hmfdj2m99syhs9p34dk640000gq/T//ccCqcixk.s 			page 5


  87:Src/stm32f1xx_hal_msp.c ****   /* USER CODE BEGIN ADC1_MspInit 0 */
  88:Src/stm32f1xx_hal_msp.c **** 
  89:Src/stm32f1xx_hal_msp.c ****   /* USER CODE END ADC1_MspInit 0 */
  90:Src/stm32f1xx_hal_msp.c ****     /* Peripheral clock enable */
  91:Src/stm32f1xx_hal_msp.c ****     __HAL_RCC_ADC1_CLK_ENABLE();
 145              		.loc 1 91 0
 146 000e 03F56C43 		add	r3, r3, #60416
 147 0012 9A69     		ldr	r2, [r3, #24]
 148 0014 42F40072 		orr	r2, r2, #512
 149 0018 9A61     		str	r2, [r3, #24]
 150 001a 9B69     		ldr	r3, [r3, #24]
 151 001c 03F40073 		and	r3, r3, #512
 152 0020 0193     		str	r3, [sp, #4]
 153 0022 019B     		ldr	r3, [sp, #4]
 154              	.LBE3:
  92:Src/stm32f1xx_hal_msp.c ****   
  93:Src/stm32f1xx_hal_msp.c ****     /**ADC1 GPIO Configuration    
  94:Src/stm32f1xx_hal_msp.c ****     PA1     ------> ADC1_IN1
  95:Src/stm32f1xx_hal_msp.c ****     PA2     ------> ADC1_IN2
  96:Src/stm32f1xx_hal_msp.c ****     PA3     ------> ADC1_IN3 
  97:Src/stm32f1xx_hal_msp.c ****     */
  98:Src/stm32f1xx_hal_msp.c ****     GPIO_InitStruct.Pin = GPIO_PIN_1|GPIO_PIN_2|GPIO_PIN_3;
 155              		.loc 1 98 0
 156 0024 0E23     		movs	r3, #14
 157 0026 0293     		str	r3, [sp, #8]
  99:Src/stm32f1xx_hal_msp.c ****     GPIO_InitStruct.Mode = GPIO_MODE_ANALOG;
 158              		.loc 1 99 0
 159 0028 0323     		movs	r3, #3
 160 002a 0393     		str	r3, [sp, #12]
 100:Src/stm32f1xx_hal_msp.c ****     HAL_GPIO_Init(GPIOA, &GPIO_InitStruct);
 161              		.loc 1 100 0
 162 002c 02A9     		add	r1, sp, #8
 163 002e 1048     		ldr	r0, .L10+4
 164              	.LVL9:
 165 0030 FFF7FEFF 		bl	HAL_GPIO_Init
 166              	.LVL10:
 101:Src/stm32f1xx_hal_msp.c **** 
 102:Src/stm32f1xx_hal_msp.c ****     /* Peripheral DMA init*/
 103:Src/stm32f1xx_hal_msp.c ****   
 104:Src/stm32f1xx_hal_msp.c ****     hdma_adc1.Instance = DMA1_Channel1;
 167              		.loc 1 104 0
 168 0034 0F48     		ldr	r0, .L10+8
 169 0036 104B     		ldr	r3, .L10+12
 170 0038 0360     		str	r3, [r0]
 105:Src/stm32f1xx_hal_msp.c ****     hdma_adc1.Init.Direction = DMA_PERIPH_TO_MEMORY;
 171              		.loc 1 105 0
 172 003a 0023     		movs	r3, #0
 173 003c 4360     		str	r3, [r0, #4]
 106:Src/stm32f1xx_hal_msp.c ****     hdma_adc1.Init.PeriphInc = DMA_PINC_DISABLE;
 174              		.loc 1 106 0
 175 003e 8360     		str	r3, [r0, #8]
 107:Src/stm32f1xx_hal_msp.c ****     hdma_adc1.Init.MemInc = DMA_MINC_ENABLE;
 176              		.loc 1 107 0
 177 0040 8022     		movs	r2, #128
 178 0042 C260     		str	r2, [r0, #12]
 108:Src/stm32f1xx_hal_msp.c ****     hdma_adc1.Init.PeriphDataAlignment = DMA_PDATAALIGN_HALFWORD;
 179              		.loc 1 108 0
ARM GAS  /var/folders/jn/652hmfdj2m99syhs9p34dk640000gq/T//ccCqcixk.s 			page 6


 180 0044 4FF48072 		mov	r2, #256
 181 0048 0261     		str	r2, [r0, #16]
 109:Src/stm32f1xx_hal_msp.c ****     hdma_adc1.Init.MemDataAlignment = DMA_MDATAALIGN_HALFWORD;
 182              		.loc 1 109 0
 183 004a 4FF48062 		mov	r2, #1024
 184 004e 4261     		str	r2, [r0, #20]
 110:Src/stm32f1xx_hal_msp.c ****     hdma_adc1.Init.Mode = DMA_CIRCULAR;
 185              		.loc 1 110 0
 186 0050 2022     		movs	r2, #32
 187 0052 8261     		str	r2, [r0, #24]
 111:Src/stm32f1xx_hal_msp.c ****     hdma_adc1.Init.Priority = DMA_PRIORITY_LOW;
 188              		.loc 1 111 0
 189 0054 C361     		str	r3, [r0, #28]
 112:Src/stm32f1xx_hal_msp.c ****     if (HAL_DMA_Init(&hdma_adc1) != HAL_OK)
 190              		.loc 1 112 0
 191 0056 FFF7FEFF 		bl	HAL_DMA_Init
 192              	.LVL11:
 193 005a 08B1     		cbz	r0, .L7
 113:Src/stm32f1xx_hal_msp.c ****     {
 114:Src/stm32f1xx_hal_msp.c ****       Error_Handler();
 194              		.loc 1 114 0
 195 005c FFF7FEFF 		bl	Error_Handler
 196              	.LVL12:
 197              	.L7:
 115:Src/stm32f1xx_hal_msp.c ****     }
 116:Src/stm32f1xx_hal_msp.c **** 
 117:Src/stm32f1xx_hal_msp.c ****     __HAL_LINKDMA(hadc,DMA_Handle,hdma_adc1);
 198              		.loc 1 117 0
 199 0060 044B     		ldr	r3, .L10+8
 200 0062 2362     		str	r3, [r4, #32]
 201 0064 5C62     		str	r4, [r3, #36]
 118:Src/stm32f1xx_hal_msp.c **** 
 119:Src/stm32f1xx_hal_msp.c ****   /* USER CODE BEGIN ADC1_MspInit 1 */
 120:Src/stm32f1xx_hal_msp.c **** 
 121:Src/stm32f1xx_hal_msp.c ****   /* USER CODE END ADC1_MspInit 1 */
 122:Src/stm32f1xx_hal_msp.c ****   }
 123:Src/stm32f1xx_hal_msp.c **** 
 124:Src/stm32f1xx_hal_msp.c **** }
 202              		.loc 1 124 0
 203 0066 06B0     		add	sp, sp, #24
 204              	.LCFI5:
 205              		.cfi_def_cfa_offset 8
 206              		@ sp needed
 207 0068 10BD     		pop	{r4, pc}
 208              	.LVL13:
 209              	.L9:
 210              	.LCFI6:
 211              		.cfi_def_cfa_offset 0
 212              		.cfi_restore 4
 213              		.cfi_restore 14
 214 006a 7047     		bx	lr
 215              	.L11:
 216              		.align	2
 217              	.L10:
 218 006c 00240140 		.word	1073816576
 219 0070 00080140 		.word	1073809408
 220 0074 00000000 		.word	hdma_adc1
ARM GAS  /var/folders/jn/652hmfdj2m99syhs9p34dk640000gq/T//ccCqcixk.s 			page 7


 221 0078 08000240 		.word	1073872904
 222              		.cfi_endproc
 223              	.LFE65:
 225              		.section	.text.HAL_ADC_MspDeInit,"ax",%progbits
 226              		.align	2
 227              		.global	HAL_ADC_MspDeInit
 228              		.thumb
 229              		.thumb_func
 231              	HAL_ADC_MspDeInit:
 232              	.LFB66:
 125:Src/stm32f1xx_hal_msp.c **** 
 126:Src/stm32f1xx_hal_msp.c **** void HAL_ADC_MspDeInit(ADC_HandleTypeDef* hadc)
 127:Src/stm32f1xx_hal_msp.c **** {
 233              		.loc 1 127 0
 234              		.cfi_startproc
 235              		@ args = 0, pretend = 0, frame = 0
 236              		@ frame_needed = 0, uses_anonymous_args = 0
 237              	.LVL14:
 128:Src/stm32f1xx_hal_msp.c **** 
 129:Src/stm32f1xx_hal_msp.c ****   if(hadc->Instance==ADC1)
 238              		.loc 1 129 0
 239 0000 0268     		ldr	r2, [r0]
 240 0002 094B     		ldr	r3, .L16
 241 0004 9A42     		cmp	r2, r3
 242 0006 0ED1     		bne	.L15
 127:Src/stm32f1xx_hal_msp.c **** 
 243              		.loc 1 127 0
 244 0008 10B5     		push	{r4, lr}
 245              	.LCFI7:
 246              		.cfi_def_cfa_offset 8
 247              		.cfi_offset 4, -8
 248              		.cfi_offset 14, -4
 249 000a 0446     		mov	r4, r0
 130:Src/stm32f1xx_hal_msp.c ****   {
 131:Src/stm32f1xx_hal_msp.c ****   /* USER CODE BEGIN ADC1_MspDeInit 0 */
 132:Src/stm32f1xx_hal_msp.c **** 
 133:Src/stm32f1xx_hal_msp.c ****   /* USER CODE END ADC1_MspDeInit 0 */
 134:Src/stm32f1xx_hal_msp.c ****     /* Peripheral clock disable */
 135:Src/stm32f1xx_hal_msp.c ****     __HAL_RCC_ADC1_CLK_DISABLE();
 250              		.loc 1 135 0
 251 000c 074A     		ldr	r2, .L16+4
 252 000e 9369     		ldr	r3, [r2, #24]
 253 0010 23F40073 		bic	r3, r3, #512
 254 0014 9361     		str	r3, [r2, #24]
 136:Src/stm32f1xx_hal_msp.c ****   
 137:Src/stm32f1xx_hal_msp.c ****     /**ADC1 GPIO Configuration    
 138:Src/stm32f1xx_hal_msp.c ****     PA1     ------> ADC1_IN1
 139:Src/stm32f1xx_hal_msp.c ****     PA2     ------> ADC1_IN2
 140:Src/stm32f1xx_hal_msp.c ****     PA3     ------> ADC1_IN3 
 141:Src/stm32f1xx_hal_msp.c ****     */
 142:Src/stm32f1xx_hal_msp.c ****     HAL_GPIO_DeInit(GPIOA, GPIO_PIN_1|GPIO_PIN_2|GPIO_PIN_3);
 255              		.loc 1 142 0
 256 0016 0E21     		movs	r1, #14
 257 0018 0548     		ldr	r0, .L16+8
 258              	.LVL15:
 259 001a FFF7FEFF 		bl	HAL_GPIO_DeInit
 260              	.LVL16:
ARM GAS  /var/folders/jn/652hmfdj2m99syhs9p34dk640000gq/T//ccCqcixk.s 			page 8


 143:Src/stm32f1xx_hal_msp.c **** 
 144:Src/stm32f1xx_hal_msp.c ****     /* Peripheral DMA DeInit*/
 145:Src/stm32f1xx_hal_msp.c ****     HAL_DMA_DeInit(hadc->DMA_Handle);
 261              		.loc 1 145 0
 262 001e 206A     		ldr	r0, [r4, #32]
 263 0020 FFF7FEFF 		bl	HAL_DMA_DeInit
 264              	.LVL17:
 265 0024 10BD     		pop	{r4, pc}
 266              	.LVL18:
 267              	.L15:
 268              	.LCFI8:
 269              		.cfi_def_cfa_offset 0
 270              		.cfi_restore 4
 271              		.cfi_restore 14
 272 0026 7047     		bx	lr
 273              	.L17:
 274              		.align	2
 275              	.L16:
 276 0028 00240140 		.word	1073816576
 277 002c 00100240 		.word	1073876992
 278 0030 00080140 		.word	1073809408
 279              		.cfi_endproc
 280              	.LFE66:
 282              		.section	.text.HAL_UART_MspInit,"ax",%progbits
 283              		.align	2
 284              		.global	HAL_UART_MspInit
 285              		.thumb
 286              		.thumb_func
 288              	HAL_UART_MspInit:
 289              	.LFB67:
 146:Src/stm32f1xx_hal_msp.c ****   }
 147:Src/stm32f1xx_hal_msp.c ****   /* USER CODE BEGIN ADC1_MspDeInit 1 */
 148:Src/stm32f1xx_hal_msp.c **** 
 149:Src/stm32f1xx_hal_msp.c ****   /* USER CODE END ADC1_MspDeInit 1 */
 150:Src/stm32f1xx_hal_msp.c **** 
 151:Src/stm32f1xx_hal_msp.c **** }
 152:Src/stm32f1xx_hal_msp.c **** 
 153:Src/stm32f1xx_hal_msp.c **** void HAL_UART_MspInit(UART_HandleTypeDef* huart)
 154:Src/stm32f1xx_hal_msp.c **** {
 290              		.loc 1 154 0
 291              		.cfi_startproc
 292              		@ args = 0, pretend = 0, frame = 24
 293              		@ frame_needed = 0, uses_anonymous_args = 0
 294              	.LVL19:
 155:Src/stm32f1xx_hal_msp.c **** 
 156:Src/stm32f1xx_hal_msp.c ****   GPIO_InitTypeDef GPIO_InitStruct;
 157:Src/stm32f1xx_hal_msp.c ****   if(huart->Instance==USART1)
 295              		.loc 1 157 0
 296 0000 0268     		ldr	r2, [r0]
 297 0002 144B     		ldr	r3, .L22
 298 0004 9A42     		cmp	r2, r3
 299 0006 24D1     		bne	.L21
 154:Src/stm32f1xx_hal_msp.c **** 
 300              		.loc 1 154 0
 301 0008 10B5     		push	{r4, lr}
 302              	.LCFI9:
 303              		.cfi_def_cfa_offset 8
ARM GAS  /var/folders/jn/652hmfdj2m99syhs9p34dk640000gq/T//ccCqcixk.s 			page 9


 304              		.cfi_offset 4, -8
 305              		.cfi_offset 14, -4
 306 000a 86B0     		sub	sp, sp, #24
 307              	.LCFI10:
 308              		.cfi_def_cfa_offset 32
 309              	.LBB4:
 158:Src/stm32f1xx_hal_msp.c ****   {
 159:Src/stm32f1xx_hal_msp.c ****   /* USER CODE BEGIN USART1_MspInit 0 */
 160:Src/stm32f1xx_hal_msp.c **** 
 161:Src/stm32f1xx_hal_msp.c ****   /* USER CODE END USART1_MspInit 0 */
 162:Src/stm32f1xx_hal_msp.c ****     /* Peripheral clock enable */
 163:Src/stm32f1xx_hal_msp.c ****     __HAL_RCC_USART1_CLK_ENABLE();
 310              		.loc 1 163 0
 311 000c 03F55843 		add	r3, r3, #55296
 312 0010 9A69     		ldr	r2, [r3, #24]
 313 0012 42F48042 		orr	r2, r2, #16384
 314 0016 9A61     		str	r2, [r3, #24]
 315 0018 9B69     		ldr	r3, [r3, #24]
 316 001a 03F48043 		and	r3, r3, #16384
 317 001e 0193     		str	r3, [sp, #4]
 318 0020 019B     		ldr	r3, [sp, #4]
 319              	.LBE4:
 164:Src/stm32f1xx_hal_msp.c ****   
 165:Src/stm32f1xx_hal_msp.c ****     /**USART1 GPIO Configuration    
 166:Src/stm32f1xx_hal_msp.c ****     PA9     ------> USART1_TX
 167:Src/stm32f1xx_hal_msp.c ****     PA10     ------> USART1_RX 
 168:Src/stm32f1xx_hal_msp.c ****     */
 169:Src/stm32f1xx_hal_msp.c ****     GPIO_InitStruct.Pin = GPIO_PIN_9;
 320              		.loc 1 169 0
 321 0022 4FF40073 		mov	r3, #512
 322 0026 0293     		str	r3, [sp, #8]
 170:Src/stm32f1xx_hal_msp.c ****     GPIO_InitStruct.Mode = GPIO_MODE_AF_PP;
 323              		.loc 1 170 0
 324 0028 0223     		movs	r3, #2
 325 002a 0393     		str	r3, [sp, #12]
 171:Src/stm32f1xx_hal_msp.c ****     GPIO_InitStruct.Speed = GPIO_SPEED_FREQ_HIGH;
 326              		.loc 1 171 0
 327 002c 0323     		movs	r3, #3
 328 002e 0593     		str	r3, [sp, #20]
 172:Src/stm32f1xx_hal_msp.c ****     HAL_GPIO_Init(GPIOA, &GPIO_InitStruct);
 329              		.loc 1 172 0
 330 0030 094C     		ldr	r4, .L22+4
 331 0032 02A9     		add	r1, sp, #8
 332 0034 2046     		mov	r0, r4
 333              	.LVL20:
 334 0036 FFF7FEFF 		bl	HAL_GPIO_Init
 335              	.LVL21:
 173:Src/stm32f1xx_hal_msp.c **** 
 174:Src/stm32f1xx_hal_msp.c ****     GPIO_InitStruct.Pin = GPIO_PIN_10;
 336              		.loc 1 174 0
 337 003a 4FF48063 		mov	r3, #1024
 338 003e 0293     		str	r3, [sp, #8]
 175:Src/stm32f1xx_hal_msp.c ****     GPIO_InitStruct.Mode = GPIO_MODE_INPUT;
 339              		.loc 1 175 0
 340 0040 0023     		movs	r3, #0
 341 0042 0393     		str	r3, [sp, #12]
 176:Src/stm32f1xx_hal_msp.c ****     GPIO_InitStruct.Pull = GPIO_NOPULL;
ARM GAS  /var/folders/jn/652hmfdj2m99syhs9p34dk640000gq/T//ccCqcixk.s 			page 10


 342              		.loc 1 176 0
 343 0044 0493     		str	r3, [sp, #16]
 177:Src/stm32f1xx_hal_msp.c ****     HAL_GPIO_Init(GPIOA, &GPIO_InitStruct);
 344              		.loc 1 177 0
 345 0046 02A9     		add	r1, sp, #8
 346 0048 2046     		mov	r0, r4
 347 004a FFF7FEFF 		bl	HAL_GPIO_Init
 348              	.LVL22:
 178:Src/stm32f1xx_hal_msp.c **** 
 179:Src/stm32f1xx_hal_msp.c ****   /* USER CODE BEGIN USART1_MspInit 1 */
 180:Src/stm32f1xx_hal_msp.c **** 
 181:Src/stm32f1xx_hal_msp.c ****   /* USER CODE END USART1_MspInit 1 */
 182:Src/stm32f1xx_hal_msp.c ****   }
 183:Src/stm32f1xx_hal_msp.c **** 
 184:Src/stm32f1xx_hal_msp.c **** }
 349              		.loc 1 184 0
 350 004e 06B0     		add	sp, sp, #24
 351              	.LCFI11:
 352              		.cfi_def_cfa_offset 8
 353              		@ sp needed
 354 0050 10BD     		pop	{r4, pc}
 355              	.LVL23:
 356              	.L21:
 357              	.LCFI12:
 358              		.cfi_def_cfa_offset 0
 359              		.cfi_restore 4
 360              		.cfi_restore 14
 361 0052 7047     		bx	lr
 362              	.L23:
 363              		.align	2
 364              	.L22:
 365 0054 00380140 		.word	1073821696
 366 0058 00080140 		.word	1073809408
 367              		.cfi_endproc
 368              	.LFE67:
 370              		.section	.text.HAL_UART_MspDeInit,"ax",%progbits
 371              		.align	2
 372              		.global	HAL_UART_MspDeInit
 373              		.thumb
 374              		.thumb_func
 376              	HAL_UART_MspDeInit:
 377              	.LFB68:
 185:Src/stm32f1xx_hal_msp.c **** 
 186:Src/stm32f1xx_hal_msp.c **** void HAL_UART_MspDeInit(UART_HandleTypeDef* huart)
 187:Src/stm32f1xx_hal_msp.c **** {
 378              		.loc 1 187 0
 379              		.cfi_startproc
 380              		@ args = 0, pretend = 0, frame = 0
 381              		@ frame_needed = 0, uses_anonymous_args = 0
 382              	.LVL24:
 383 0000 08B5     		push	{r3, lr}
 384              	.LCFI13:
 385              		.cfi_def_cfa_offset 8
 386              		.cfi_offset 3, -8
 387              		.cfi_offset 14, -4
 188:Src/stm32f1xx_hal_msp.c **** 
 189:Src/stm32f1xx_hal_msp.c ****   if(huart->Instance==USART1)
ARM GAS  /var/folders/jn/652hmfdj2m99syhs9p34dk640000gq/T//ccCqcixk.s 			page 11


 388              		.loc 1 189 0
 389 0002 0268     		ldr	r2, [r0]
 390 0004 064B     		ldr	r3, .L27
 391 0006 9A42     		cmp	r2, r3
 392 0008 09D1     		bne	.L24
 190:Src/stm32f1xx_hal_msp.c ****   {
 191:Src/stm32f1xx_hal_msp.c ****   /* USER CODE BEGIN USART1_MspDeInit 0 */
 192:Src/stm32f1xx_hal_msp.c **** 
 193:Src/stm32f1xx_hal_msp.c ****   /* USER CODE END USART1_MspDeInit 0 */
 194:Src/stm32f1xx_hal_msp.c ****     /* Peripheral clock disable */
 195:Src/stm32f1xx_hal_msp.c ****     __HAL_RCC_USART1_CLK_DISABLE();
 393              		.loc 1 195 0
 394 000a 064A     		ldr	r2, .L27+4
 395 000c 9369     		ldr	r3, [r2, #24]
 396 000e 23F48043 		bic	r3, r3, #16384
 397 0012 9361     		str	r3, [r2, #24]
 196:Src/stm32f1xx_hal_msp.c ****   
 197:Src/stm32f1xx_hal_msp.c ****     /**USART1 GPIO Configuration    
 198:Src/stm32f1xx_hal_msp.c ****     PA9     ------> USART1_TX
 199:Src/stm32f1xx_hal_msp.c ****     PA10     ------> USART1_RX 
 200:Src/stm32f1xx_hal_msp.c ****     */
 201:Src/stm32f1xx_hal_msp.c ****     HAL_GPIO_DeInit(GPIOA, GPIO_PIN_9|GPIO_PIN_10);
 398              		.loc 1 201 0
 399 0014 4FF4C061 		mov	r1, #1536
 400 0018 0348     		ldr	r0, .L27+8
 401              	.LVL25:
 402 001a FFF7FEFF 		bl	HAL_GPIO_DeInit
 403              	.LVL26:
 404              	.L24:
 405 001e 08BD     		pop	{r3, pc}
 406              	.L28:
 407              		.align	2
 408              	.L27:
 409 0020 00380140 		.word	1073821696
 410 0024 00100240 		.word	1073876992
 411 0028 00080140 		.word	1073809408
 412              		.cfi_endproc
 413              	.LFE68:
 415              		.text
 416              	.Letext0:
 417              		.file 2 "/usr/local/Cellar/gcc-arm-none-eabi/20160928/arm-none-eabi/include/machine/_default_types
 418              		.file 3 "/usr/local/Cellar/gcc-arm-none-eabi/20160928/arm-none-eabi/include/sys/_stdint.h"
 419              		.file 4 "./Drivers_V1.0.4/CMSIS/Device/ST/STM32F1xx/Include/stm32f103xb.h"
 420              		.file 5 "./Drivers_V1.0.4/STM32F1xx_HAL_Driver/Inc/stm32f1xx_hal_def.h"
 421              		.file 6 "./Drivers_V1.0.4/STM32F1xx_HAL_Driver/Inc/stm32f1xx_hal_gpio.h"
 422              		.file 7 "./Drivers_V1.0.4/STM32F1xx_HAL_Driver/Inc/stm32f1xx_hal_dma.h"
 423              		.file 8 "./Drivers_V1.0.4/STM32F1xx_HAL_Driver/Inc/stm32f1xx_hal_adc.h"
 424              		.file 9 "./Drivers_V1.0.4/STM32F1xx_HAL_Driver/Inc/stm32f1xx_hal_uart.h"
 425              		.file 10 "./Drivers_V1.0.4/CMSIS/Include/core_cm3.h"
 426              		.file 11 "./Drivers_V1.0.4/STM32F1xx_HAL_Driver/Inc/stm32f1xx_hal_cortex.h"
ARM GAS  /var/folders/jn/652hmfdj2m99syhs9p34dk640000gq/T//ccCqcixk.s 			page 12

