ARM GAS  /var/folders/jn/652hmfdj2m99syhs9p34dk640000gq/T//ccrZ0n5n.s 			page 1


   1              		.syntax unified
   2              		.cpu cortex-m3
   3              		.fpu softvfp
   4              		.eabi_attribute 20, 1
   5              		.eabi_attribute 21, 1
   6              		.eabi_attribute 23, 3
   7              		.eabi_attribute 24, 1
   8              		.eabi_attribute 25, 1
   9              		.eabi_attribute 26, 1
  10              		.eabi_attribute 30, 4
  11              		.eabi_attribute 34, 1
  12              		.eabi_attribute 18, 4
  13              		.thumb
  14              		.syntax unified
  15              		.file	"main.c"
  16              		.text
  17              	.Ltext0:
  18              		.cfi_sections	.debug_frame
  19              		.section	.text.SysTick_Handler,"ax",%progbits
  20              		.align	1
  21              		.global	SysTick_Handler
  22              		.thumb
  23              		.thumb_func
  25              	SysTick_Handler:
  26              	.LFB64:
  27              		.file 1 "main.c"
   1:main.c        **** // **************************************************************
   2:main.c        **** // Copyright (c) 2022 AARI Corporation. All rights reserved
   3:main.c        **** // Author Wei-Min Shen, 3-26-2022, 11-9-2022
   4:main.c        **** //
   5:main.c        **** // A demo for two timers to colaborate with each other:
   6:main.c        **** // 	Timer1's interrupt trun on  PC13/LED, and
   7:main.c        **** // 	Timer2's interrupt turn off PC13/LED
   8:main.c        **** //	To see these fast effects, gdb break on HAL_GPIO_TogglePin
   9:main.c        **** // ***************************************************************
  10:main.c        **** 
  11:main.c        **** #include "stm32f1xx_hal.h"
  12:main.c        **** 
  13:main.c        **** void TIM2_IT_Init();
  14:main.c        **** void TIM2_PWM1_Init();
  15:main.c        **** 
  16:main.c        **** // this is needed for HAL_Delay()
  17:main.c        **** void SysTick_Handler(void)	// this SysTick Timer is running at _MHZ
  18:main.c        **** {
  28              		.loc 1 18 0
  29              		.cfi_startproc
  30              		@ args = 0, pretend = 0, frame = 0
  31              		@ frame_needed = 0, uses_anonymous_args = 0
  32              		@ link register save eliminated.
  19:main.c        ****   HAL_IncTick();                  	// at Hardware Abstraction Level (HAL), OR
  33              		.loc 1 19 0
  34 0000 FFF7FEBF 		b	HAL_IncTick
  35              	.LVL0:
  36              		.cfi_endproc
  37              	.LFE64:
  39              		.section	.text.SystemClock_Config,"ax",%progbits
  40              		.align	1
ARM GAS  /var/folders/jn/652hmfdj2m99syhs9p34dk640000gq/T//ccrZ0n5n.s 			page 2


  41              		.global	SystemClock_Config
  42              		.thumb
  43              		.thumb_func
  45              	SystemClock_Config:
  46              	.LFB65:
  20:main.c        ****   //extern int32_t uwTick; uwTick++;	// equivelently, do it at the hardware level
  21:main.c        **** }
  22:main.c        **** 
  23:main.c        **** //
  24:main.c        **** // System Clock Configuration
  25:main.c        **** //
  26:main.c        **** void SystemClock_Config(void) {
  47              		.loc 1 26 0
  48              		.cfi_startproc
  49              		@ args = 0, pretend = 0, frame = 80
  50              		@ frame_needed = 0, uses_anonymous_args = 0
  51 0000 30B5     		push	{r4, r5, lr}
  52              	.LCFI0:
  53              		.cfi_def_cfa_offset 12
  54              		.cfi_offset 4, -12
  55              		.cfi_offset 5, -8
  56              		.cfi_offset 14, -4
  27:main.c        **** 
  28:main.c        ****   RCC_OscInitTypeDef RCC_OscInitStruct;
  29:main.c        ****   RCC_ClkInitTypeDef RCC_ClkInitStruct;
  30:main.c        ****   RCC_PeriphCLKInitTypeDef PeriphClkInit;
  31:main.c        **** 
  32:main.c        ****   // Initializes the CPU, AHB and APB busses clocks
  33:main.c        ****   RCC_OscInitStruct.OscillatorType      = RCC_OSCILLATORTYPE_HSI;
  34:main.c        ****   RCC_OscInitStruct.HSIState            = RCC_HSI_ON;
  57              		.loc 1 34 0
  58 0002 0123     		movs	r3, #1
  26:main.c        **** 
  59              		.loc 1 26 0
  60 0004 95B0     		sub	sp, sp, #84
  61              	.LCFI1:
  62              		.cfi_def_cfa_offset 96
  63              		.loc 1 34 0
  64 0006 0E93     		str	r3, [sp, #56]
  35:main.c        ****   RCC_OscInitStruct.HSICalibrationValue = 16;
  65              		.loc 1 35 0
  66 0008 1023     		movs	r3, #16
  33:main.c        ****   RCC_OscInitStruct.HSIState            = RCC_HSI_ON;
  67              		.loc 1 33 0
  68 000a 0224     		movs	r4, #2
  36:main.c        ****   RCC_OscInitStruct.PLL.PLLState        = RCC_PLL_ON;
  37:main.c        ****   RCC_OscInitStruct.PLL.PLLSource       = RCC_PLLSOURCE_HSI_DIV2;
  69              		.loc 1 37 0
  70 000c 0025     		movs	r5, #0
  35:main.c        ****   RCC_OscInitStruct.PLL.PLLState        = RCC_PLL_ON;
  71              		.loc 1 35 0
  72 000e 0F93     		str	r3, [sp, #60]
  38:main.c        ****   RCC_OscInitStruct.PLL.PLLMUL          = RCC_PLL_MUL16;
  39:main.c        ****   HAL_RCC_OscConfig(&RCC_OscInitStruct);
  73              		.loc 1 39 0
  74 0010 0AA8     		add	r0, sp, #40
  38:main.c        ****   RCC_OscInitStruct.PLL.PLLMUL          = RCC_PLL_MUL16;
ARM GAS  /var/folders/jn/652hmfdj2m99syhs9p34dk640000gq/T//ccrZ0n5n.s 			page 3


  75              		.loc 1 38 0
  76 0012 4FF46013 		mov	r3, #3670016
  77 0016 1393     		str	r3, [sp, #76]
  33:main.c        ****   RCC_OscInitStruct.HSIState            = RCC_HSI_ON;
  78              		.loc 1 33 0
  79 0018 0A94     		str	r4, [sp, #40]
  36:main.c        ****   RCC_OscInitStruct.PLL.PLLSource       = RCC_PLLSOURCE_HSI_DIV2;
  80              		.loc 1 36 0
  81 001a 1194     		str	r4, [sp, #68]
  37:main.c        ****   RCC_OscInitStruct.PLL.PLLMUL          = RCC_PLL_MUL16;
  82              		.loc 1 37 0
  83 001c 1295     		str	r5, [sp, #72]
  84              		.loc 1 39 0
  85 001e FFF7FEFF 		bl	HAL_RCC_OscConfig
  86              	.LVL1:
  40:main.c        **** 
  41:main.c        ****   // Initializes the CPU, AHB and APB busses clocks
  42:main.c        ****   RCC_ClkInitStruct.ClockType      = RCC_CLOCKTYPE_HCLK | RCC_CLOCKTYPE_SYSCLK | RCC_CLOCKTYPE_PCLK
  87              		.loc 1 42 0
  88 0022 0F23     		movs	r3, #15
  43:main.c        ****   RCC_ClkInitStruct.SYSCLKSource   = RCC_SYSCLKSOURCE_PLLCLK;
  44:main.c        ****   RCC_ClkInitStruct.AHBCLKDivider  = RCC_SYSCLK_DIV1;
  45:main.c        ****   RCC_ClkInitStruct.APB1CLKDivider = RCC_HCLK_DIV2;
  46:main.c        ****   RCC_ClkInitStruct.APB2CLKDivider = RCC_HCLK_DIV1;
  47:main.c        **** 
  48:main.c        ****   HAL_RCC_ClockConfig(&RCC_ClkInitStruct, FLASH_LATENCY_2);
  89              		.loc 1 48 0
  90 0024 2146     		mov	r1, r4
  42:main.c        ****   RCC_ClkInitStruct.SYSCLKSource   = RCC_SYSCLKSOURCE_PLLCLK;
  91              		.loc 1 42 0
  92 0026 0593     		str	r3, [sp, #20]
  93              		.loc 1 48 0
  94 0028 05A8     		add	r0, sp, #20
  45:main.c        ****   RCC_ClkInitStruct.APB2CLKDivider = RCC_HCLK_DIV1;
  95              		.loc 1 45 0
  96 002a 4FF48063 		mov	r3, #1024
  97 002e 0893     		str	r3, [sp, #32]
  43:main.c        ****   RCC_ClkInitStruct.SYSCLKSource   = RCC_SYSCLKSOURCE_PLLCLK;
  98              		.loc 1 43 0
  99 0030 0694     		str	r4, [sp, #24]
  44:main.c        ****   RCC_ClkInitStruct.APB1CLKDivider = RCC_HCLK_DIV2;
 100              		.loc 1 44 0
 101 0032 0795     		str	r5, [sp, #28]
  46:main.c        **** 
 102              		.loc 1 46 0
 103 0034 0995     		str	r5, [sp, #36]
 104              		.loc 1 48 0
 105 0036 FFF7FEFF 		bl	HAL_RCC_ClockConfig
 106              	.LVL2:
  49:main.c        **** 
  50:main.c        ****   PeriphClkInit.PeriphClockSelection = RCC_PERIPHCLK_ADC;
  51:main.c        ****   PeriphClkInit.AdcClockSelection    = RCC_ADCPCLK2_DIV8;  // 8 MHz
 107              		.loc 1 51 0
 108 003a 4FF44043 		mov	r3, #49152
  52:main.c        ****   HAL_RCCEx_PeriphCLKConfig(&PeriphClkInit);
 109              		.loc 1 52 0
 110 003e 01A8     		add	r0, sp, #4
ARM GAS  /var/folders/jn/652hmfdj2m99syhs9p34dk640000gq/T//ccrZ0n5n.s 			page 4


  51:main.c        ****   HAL_RCCEx_PeriphCLKConfig(&PeriphClkInit);
 111              		.loc 1 51 0
 112 0040 0393     		str	r3, [sp, #12]
  50:main.c        ****   PeriphClkInit.AdcClockSelection    = RCC_ADCPCLK2_DIV8;  // 8 MHz
 113              		.loc 1 50 0
 114 0042 0194     		str	r4, [sp, #4]
 115              		.loc 1 52 0
 116 0044 FFF7FEFF 		bl	HAL_RCCEx_PeriphCLKConfig
 117              	.LVL3:
  53:main.c        **** 
  54:main.c        ****   // Configure the Systick interrupt time
  55:main.c        ****   HAL_SYSTICK_Config(HAL_RCC_GetHCLKFreq() / 1000);
 118              		.loc 1 55 0
 119 0048 FFF7FEFF 		bl	HAL_RCC_GetHCLKFreq
 120              	.LVL4:
 121 004c 4FF47A73 		mov	r3, #1000
 122 0050 B0FBF3F0 		udiv	r0, r0, r3
 123 0054 FFF7FEFF 		bl	HAL_SYSTICK_Config
 124              	.LVL5:
  56:main.c        **** 
  57:main.c        ****   // Configure the Systick
  58:main.c        ****   HAL_SYSTICK_CLKSourceConfig(SYSTICK_CLKSOURCE_HCLK);
 125              		.loc 1 58 0
 126 0058 0420     		movs	r0, #4
 127 005a FFF7FEFF 		bl	HAL_SYSTICK_CLKSourceConfig
 128              	.LVL6:
  59:main.c        **** 
  60:main.c        ****   // SysTick_IRQn interrupt configuration
  61:main.c        ****   HAL_NVIC_SetPriority(SysTick_IRQn, 0, 0);
 129              		.loc 1 61 0
 130 005e 2A46     		mov	r2, r5
 131 0060 2946     		mov	r1, r5
 132 0062 4FF0FF30 		mov	r0, #-1
 133 0066 FFF7FEFF 		bl	HAL_NVIC_SetPriority
 134              	.LVL7:
  62:main.c        **** }
 135              		.loc 1 62 0
 136 006a 15B0     		add	sp, sp, #84
 137              	.LCFI2:
 138              		.cfi_def_cfa_offset 12
 139              		@ sp needed
 140 006c 30BD     		pop	{r4, r5, pc}
 141              		.cfi_endproc
 142              	.LFE65:
 144              		.section	.text.PC13_led_init,"ax",%progbits
 145              		.align	1
 146              		.global	PC13_led_init
 147              		.thumb
 148              		.thumb_func
 150              	PC13_led_init:
 151              	.LFB66:
  63:main.c        **** 
  64:main.c        **** //===========================
  65:main.c        **** //	PC13 LED
  66:main.c        **** //===========================
  67:main.c        **** 
  68:main.c        **** volatile uint32_t* GPIOC_BSRR = (volatile uint32_t*) 0x40011010; // Port C
ARM GAS  /var/folders/jn/652hmfdj2m99syhs9p34dk640000gq/T//ccrZ0n5n.s 			page 5


  69:main.c        **** volatile uint32_t led_state = 0;
  70:main.c        **** 
  71:main.c        **** void PC13_led_init(void)
  72:main.c        **** {
 152              		.loc 1 72 0
 153              		.cfi_startproc
 154              		@ args = 0, pretend = 0, frame = 0
 155              		@ frame_needed = 0, uses_anonymous_args = 0
 156              		@ link register save eliminated.
 157              	.LVL8:
  73:main.c        ****   volatile uint32_t* RCC_APB2ENR = (volatile uint32_t*) 0x40021018;     // RCC
  74:main.c        ****   volatile uint32_t* GPIOC_CRH =  (volatile uint32_t*) 0x40011004;      // Port C
  75:main.c        ****   *RCC_APB2ENR |= (0b1<<4);     // set bit4=1 to enable Port C
 158              		.loc 1 75 0
 159 0000 0A4A     		ldr	r2, .L4
 160 0002 1368     		ldr	r3, [r2]
 161 0004 43F01003 		orr	r3, r3, #16
 162 0008 1360     		str	r3, [r2]
  76:main.c        ****   *GPIOC_CRH &= ~(0b1111<<20);  // clear PC13, bits 23..20
 163              		.loc 1 76 0
 164 000a 094B     		ldr	r3, .L4+4
 165 000c 1A68     		ldr	r2, [r3]
 166 000e 22F47002 		bic	r2, r2, #15728640
 167 0012 1A60     		str	r2, [r3]
  77:main.c        ****   *GPIOC_CRH  |=  (0b0110<<20);  // set the bits to 0110 for Mode Output 2
 168              		.loc 1 77 0
 169 0014 1A68     		ldr	r2, [r3]
 170 0016 42F4C002 		orr	r2, r2, #6291456
 171 001a 1A60     		str	r2, [r3]
  78:main.c        ****   *GPIOC_BSRR |= ((uint32_t) 1 << (13 + 0)); // turn off PC13/LED
 172              		.loc 1 78 0
 173 001c 054B     		ldr	r3, .L4+8
 174 001e 1A68     		ldr	r2, [r3]
 175 0020 1368     		ldr	r3, [r2]
 176 0022 43F40053 		orr	r3, r3, #8192
 177 0026 1360     		str	r3, [r2]
 178 0028 7047     		bx	lr
 179              	.L5:
 180 002a 00BF     		.align	2
 181              	.L4:
 182 002c 18100240 		.word	1073877016
 183 0030 04100140 		.word	1073811460
 184 0034 00000000 		.word	.LANCHOR0
 185              		.cfi_endproc
 186              	.LFE66:
 188              		.section	.text.PC13_led_toggle,"ax",%progbits
 189              		.align	1
 190              		.global	PC13_led_toggle
 191              		.thumb
 192              		.thumb_func
 194              	PC13_led_toggle:
 195              	.LFB67:
  79:main.c        **** }
  80:main.c        **** 
  81:main.c        **** void PC13_led_toggle(void)
  82:main.c        **** {
 196              		.loc 1 82 0
ARM GAS  /var/folders/jn/652hmfdj2m99syhs9p34dk640000gq/T//ccrZ0n5n.s 			page 6


 197              		.cfi_startproc
 198              		@ args = 0, pretend = 0, frame = 0
 199              		@ frame_needed = 0, uses_anonymous_args = 0
 200              		@ link register save eliminated.
  83:main.c        ****   if (led_state) { // make PC13/LED OFF
 201              		.loc 1 83 0
 202 0000 094B     		ldr	r3, .L11
 203 0002 0A4A     		ldr	r2, .L11+4
 204 0004 1968     		ldr	r1, [r3]
 205 0006 31B1     		cbz	r1, .L7
  84:main.c        ****         *GPIOC_BSRR |= ((uint32_t) 1 << (13 + 0));
 206              		.loc 1 84 0
 207 0008 1168     		ldr	r1, [r2]
 208 000a 0A68     		ldr	r2, [r1]
 209 000c 42F40052 		orr	r2, r2, #8192
 210 0010 0A60     		str	r2, [r1]
  85:main.c        ****         led_state = 0;
 211              		.loc 1 85 0
 212 0012 0022     		movs	r2, #0
 213 0014 05E0     		b	.L9
 214              	.L7:
  86:main.c        ****   } else { // make it ON
  87:main.c        ****         *GPIOC_BSRR |= ((uint32_t) 1 << (13 + 16));
 215              		.loc 1 87 0
 216 0016 1168     		ldr	r1, [r2]
 217 0018 0A68     		ldr	r2, [r1]
 218 001a 42F00052 		orr	r2, r2, #536870912
 219 001e 0A60     		str	r2, [r1]
  88:main.c        ****         led_state = 1;
 220              		.loc 1 88 0
 221 0020 0122     		movs	r2, #1
 222              	.L9:
 223 0022 1A60     		str	r2, [r3]
 224 0024 7047     		bx	lr
 225              	.L12:
 226 0026 00BF     		.align	2
 227              	.L11:
 228 0028 00000000 		.word	.LANCHOR1
 229 002c 00000000 		.word	.LANCHOR0
 230              		.cfi_endproc
 231              	.LFE67:
 233              		.section	.text.startup.main,"ax",%progbits
 234              		.align	1
 235              		.global	main
 236              		.thumb
 237              		.thumb_func
 239              	main:
 240              	.LFB68:
  89:main.c        ****   }
  90:main.c        **** }
  91:main.c        **** 
  92:main.c        **** 
  93:main.c        **** // ======================
  94:main.c        **** int main(void) {
 241              		.loc 1 94 0
 242              		.cfi_startproc
 243              		@ args = 0, pretend = 0, frame = 0
ARM GAS  /var/folders/jn/652hmfdj2m99syhs9p34dk640000gq/T//ccrZ0n5n.s 			page 7


 244              		@ frame_needed = 0, uses_anonymous_args = 0
 245 0000 70B5     		push	{r4, r5, r6, lr}
 246              	.LCFI3:
 247              		.cfi_def_cfa_offset 16
 248              		.cfi_offset 4, -16
 249              		.cfi_offset 5, -12
 250              		.cfi_offset 6, -8
 251              		.cfi_offset 14, -4
  95:main.c        **** 
  96:main.c        ****   HAL_Init();
 252              		.loc 1 96 0
 253 0002 FFF7FEFF 		bl	HAL_Init
 254              	.LVL9:
  97:main.c        **** 
  98:main.c        ****   SystemClock_Config();
 255              		.loc 1 98 0
 256 0006 FFF7FEFF 		bl	SystemClock_Config
 257              	.LVL10:
  99:main.c        **** 
 100:main.c        **** /*
 101:main.c        ****   __HAL_RCC_AFIO_CLK_ENABLE();
 102:main.c        **** 
 103:main.c        ****   HAL_NVIC_SetPriorityGrouping(NVIC_PRIORITYGROUP_4);
 104:main.c        ****   HAL_NVIC_SetPriority(MemoryManagement_IRQn, 0, 0);
 105:main.c        ****   HAL_NVIC_SetPriority(BusFault_IRQn, 0, 0);
 106:main.c        ****   HAL_NVIC_SetPriority(UsageFault_IRQn, 0, 0);
 107:main.c        ****   HAL_NVIC_SetPriority(SVCall_IRQn, 0, 0);
 108:main.c        ****   HAL_NVIC_SetPriority(DebugMonitor_IRQn, 0, 0);
 109:main.c        ****   HAL_NVIC_SetPriority(PendSV_IRQn, 0, 0);
 110:main.c        ****   HAL_NVIC_SetPriority(SysTick_IRQn, 0, 0);
 111:main.c        **** */
 112:main.c        **** 
 113:main.c        **** //  TIM1_Init();
 114:main.c        **** 
 115:main.c        **** //  TIM2_IT_Init();
 116:main.c        **** 
 117:main.c        ****   TIM2_PWM1_Init();
 258              		.loc 1 117 0
 259 000a FFF7FEFF 		bl	TIM2_PWM1_Init
 260              	.LVL11:
 118:main.c        **** 
 119:main.c        ****   if (HAL_InitTick(0) != HAL_ERROR)
 261              		.loc 1 119 0
 262 000e 0020     		movs	r0, #0
 263 0010 FFF7FEFF 		bl	HAL_InitTick
 264              	.LVL12:
 120:main.c        ****   {
 121:main.c        **** 	// means the timers are started successfully
 122:main.c        ****   }
 123:main.c        **** 
 124:main.c        ****   PC13_led_init();	// needed for toggle PC13/LED
 125:main.c        **** 
 126:main.c        ****   int32_t CH1_DC = 0;
 127:main.c        **** 
 128:main.c        ****   while(1)
 129:main.c        ****    {
 130:main.c        ****     	while(CH1_DC < 65535)
ARM GAS  /var/folders/jn/652hmfdj2m99syhs9p34dk640000gq/T//ccrZ0n5n.s 			page 8


 265              		.loc 1 130 0
 266 0014 4FF6FE76 		movw	r6, #65534
 124:main.c        **** 
 267              		.loc 1 124 0
 268 0018 FFF7FEFF 		bl	PC13_led_init
 269              	.LVL13:
 126:main.c        **** 
 270              		.loc 1 126 0
 271 001c 0024     		movs	r4, #0
 131:main.c        ****     	{
 132:main.c        **** 		TIM2->CCR1 = CH1_DC;
 133:main.c        ****     		CH1_DC += 70;
 134:main.c        ****     		HAL_Delay(1);
 135:main.c        ****     	}
 136:main.c        ****     	while(CH1_DC > 0)
 137:main.c        ****     	{
 138:main.c        ****    		TIM2->CCR1 = CH1_DC;
 272              		.loc 1 138 0
 273 001e 4FF08045 		mov	r5, #1073741824
 274              	.LVL14:
 275              	.L14:
 130:main.c        ****     	{
 276              		.loc 1 130 0
 277 0022 B442     		cmp	r4, r6
 278 0024 05DC     		bgt	.L16
 132:main.c        ****     		CH1_DC += 70;
 279              		.loc 1 132 0
 280 0026 6C63     		str	r4, [r5, #52]
 134:main.c        ****     	}
 281              		.loc 1 134 0
 282 0028 0120     		movs	r0, #1
 133:main.c        ****     		HAL_Delay(1);
 283              		.loc 1 133 0
 284 002a 4634     		adds	r4, r4, #70
 285              	.LVL15:
 134:main.c        ****     	}
 286              		.loc 1 134 0
 287 002c FFF7FEFF 		bl	HAL_Delay
 288              	.LVL16:
 289 0030 F7E7     		b	.L14
 290              	.L16:
 291              		.loc 1 138 0
 292 0032 6C63     		str	r4, [r5, #52]
 139:main.c        ****     		CH1_DC -= 70;
 140:main.c        ****     		HAL_Delay(1);
 293              		.loc 1 140 0
 294 0034 0120     		movs	r0, #1
 139:main.c        ****     		CH1_DC -= 70;
 295              		.loc 1 139 0
 296 0036 463C     		subs	r4, r4, #70
 297              	.LVL17:
 298              		.loc 1 140 0
 299 0038 FFF7FEFF 		bl	HAL_Delay
 300              	.LVL18:
 136:main.c        ****     	{
 301              		.loc 1 136 0
 302 003c 002C     		cmp	r4, #0
ARM GAS  /var/folders/jn/652hmfdj2m99syhs9p34dk640000gq/T//ccrZ0n5n.s 			page 9


 303 003e F8DC     		bgt	.L16
 304 0040 EFE7     		b	.L14
 305              		.cfi_endproc
 306              	.LFE68:
 308              		.global	led_state
 309              		.global	GPIOC_BSRR
 310              		.section	.bss.led_state,"aw",%nobits
 311              		.align	2
 312              		.set	.LANCHOR1,. + 0
 315              	led_state:
 316 0000 00000000 		.space	4
 317              		.section	.data.GPIOC_BSRR,"aw",%progbits
 318              		.align	2
 319              		.set	.LANCHOR0,. + 0
 322              	GPIOC_BSRR:
 323 0000 10100140 		.word	1073811472
 324              		.text
 325              	.Letext0:
 326              		.file 2 "/usr/local/Cellar/gcc-arm-none-eabi/20160928/arm-none-eabi/include/machine/_default_types
 327              		.file 3 "/usr/local/Cellar/gcc-arm-none-eabi/20160928/arm-none-eabi/include/sys/_stdint.h"
 328              		.file 4 "../Drivers/CMSIS/Device/ST/STM32F1xx/Include/stm32f103xb.h"
 329              		.file 5 "../Drivers/STM32F1xx_HAL_Driver/Inc/stm32f1xx_hal_def.h"
 330              		.file 6 "../Drivers/STM32F1xx_HAL_Driver/Inc/stm32f1xx_hal_rcc.h"
 331              		.file 7 "../Drivers/STM32F1xx_HAL_Driver/Inc/stm32f1xx_hal_rcc_ex.h"
 332              		.file 8 "../Drivers/CMSIS/Include/core_cm3.h"
 333              		.file 9 "../Drivers/STM32F1xx_HAL_Driver/Inc/stm32f1xx_hal.h"
 334              		.file 10 "../Drivers/STM32F1xx_HAL_Driver/Inc/stm32f1xx_hal_cortex.h"
ARM GAS  /var/folders/jn/652hmfdj2m99syhs9p34dk640000gq/T//ccrZ0n5n.s 			page 10

