ARM GAS  /var/folders/jn/652hmfdj2m99syhs9p34dk640000gq/T//ccfGtqtx.s 			page 1


   1              		.syntax unified
   2              		.cpu cortex-m3
   3              		.fpu softvfp
   4              		.eabi_attribute 20, 1
   5              		.eabi_attribute 21, 1
   6              		.eabi_attribute 23, 3
   7              		.eabi_attribute 24, 1
   8              		.eabi_attribute 25, 1
   9              		.eabi_attribute 26, 1
  10              		.eabi_attribute 30, 4
  11              		.eabi_attribute 34, 1
  12              		.eabi_attribute 18, 4
  13              		.thumb
  14              		.syntax unified
  15              		.file	"syscalls.c"
  16              		.text
  17              	.Ltext0:
  18              		.cfi_sections	.debug_frame
  19              		.section	.text.initialise_monitor_handles,"ax",%progbits
  20              		.align	1
  21              		.global	initialise_monitor_handles
  22              		.thumb
  23              		.thumb_func
  25              	initialise_monitor_handles:
  26              	.LFB17:
  27              		.file 1 "Src/syscalls.c"
   1:Src/syscalls.c **** /**
   2:Src/syscalls.c ****  ******************************************************************************
   3:Src/syscalls.c ****  * @file      syscalls.c
   4:Src/syscalls.c ****  * @author    Auto-generated by STM32CubeIDE
   5:Src/syscalls.c ****  * @brief     STM32CubeIDE Minimal System calls file
   6:Src/syscalls.c ****  *
   7:Src/syscalls.c ****  *            For more information about which c-functions
   8:Src/syscalls.c ****  *            need which of these lowlevel functions
   9:Src/syscalls.c ****  *            please consult the Newlib libc-manual
  10:Src/syscalls.c ****  ******************************************************************************
  11:Src/syscalls.c ****  * @attention
  12:Src/syscalls.c ****  *
  13:Src/syscalls.c ****  * <h2><center>&copy; Copyright (c) 2020 STMicroelectronics.
  14:Src/syscalls.c ****  * All rights reserved.</center></h2>
  15:Src/syscalls.c ****  *
  16:Src/syscalls.c ****  * This software component is licensed by ST under BSD 3-Clause license,
  17:Src/syscalls.c ****  * the "License"; You may not use this file except in compliance with the
  18:Src/syscalls.c ****  * License. You may obtain a copy of the License at:
  19:Src/syscalls.c ****  *                        opensource.org/licenses/BSD-3-Clause
  20:Src/syscalls.c ****  *
  21:Src/syscalls.c ****  ******************************************************************************
  22:Src/syscalls.c ****  */
  23:Src/syscalls.c **** 
  24:Src/syscalls.c **** /* Includes */
  25:Src/syscalls.c **** #include <sys/stat.h>
  26:Src/syscalls.c **** #include <stdlib.h>
  27:Src/syscalls.c **** #include <errno.h>
  28:Src/syscalls.c **** #include <stdio.h>
  29:Src/syscalls.c **** #include <signal.h>
  30:Src/syscalls.c **** #include <time.h>
  31:Src/syscalls.c **** #include <sys/time.h>
ARM GAS  /var/folders/jn/652hmfdj2m99syhs9p34dk640000gq/T//ccfGtqtx.s 			page 2


  32:Src/syscalls.c **** #include <sys/times.h>
  33:Src/syscalls.c **** 
  34:Src/syscalls.c **** 
  35:Src/syscalls.c **** /* Variables */
  36:Src/syscalls.c **** //#undef errno
  37:Src/syscalls.c **** extern int errno;
  38:Src/syscalls.c **** extern int __io_putchar(int ch) __attribute__((weak));
  39:Src/syscalls.c **** extern int __io_getchar(void) __attribute__((weak));
  40:Src/syscalls.c **** 
  41:Src/syscalls.c **** register char * stack_ptr asm("sp");
  42:Src/syscalls.c **** 
  43:Src/syscalls.c **** char *__env[1] = { 0 };
  44:Src/syscalls.c **** char **environ = __env;
  45:Src/syscalls.c **** 
  46:Src/syscalls.c **** 
  47:Src/syscalls.c **** /* Functions */
  48:Src/syscalls.c **** void initialise_monitor_handles()
  49:Src/syscalls.c **** {
  28              		.loc 1 49 0
  29              		.cfi_startproc
  30              		@ args = 0, pretend = 0, frame = 0
  31              		@ frame_needed = 0, uses_anonymous_args = 0
  32              		@ link register save eliminated.
  33 0000 7047     		bx	lr
  34              		.cfi_endproc
  35              	.LFE17:
  37              		.section	.text._getpid,"ax",%progbits
  38              		.align	1
  39              		.global	_getpid
  40              		.thumb
  41              		.thumb_func
  43              	_getpid:
  44              	.LFB18:
  50:Src/syscalls.c **** }
  51:Src/syscalls.c **** 
  52:Src/syscalls.c **** int _getpid(void)
  53:Src/syscalls.c **** {
  45              		.loc 1 53 0
  46              		.cfi_startproc
  47              		@ args = 0, pretend = 0, frame = 0
  48              		@ frame_needed = 0, uses_anonymous_args = 0
  49              		@ link register save eliminated.
  54:Src/syscalls.c **** 	return 1;
  55:Src/syscalls.c **** }
  50              		.loc 1 55 0
  51 0000 0120     		movs	r0, #1
  52 0002 7047     		bx	lr
  53              		.cfi_endproc
  54              	.LFE18:
  56              		.section	.text._kill,"ax",%progbits
  57              		.align	1
  58              		.global	_kill
  59              		.thumb
  60              		.thumb_func
  62              	_kill:
  63              	.LFB19:
  56:Src/syscalls.c **** 
ARM GAS  /var/folders/jn/652hmfdj2m99syhs9p34dk640000gq/T//ccfGtqtx.s 			page 3


  57:Src/syscalls.c **** int _kill(int pid, int sig)
  58:Src/syscalls.c **** {
  64              		.loc 1 58 0
  65              		.cfi_startproc
  66              		@ args = 0, pretend = 0, frame = 0
  67              		@ frame_needed = 0, uses_anonymous_args = 0
  68              	.LVL0:
  69 0000 08B5     		push	{r3, lr}
  70              	.LCFI0:
  71              		.cfi_def_cfa_offset 8
  72              		.cfi_offset 3, -8
  73              		.cfi_offset 14, -4
  59:Src/syscalls.c **** 	errno = EINVAL;
  74              		.loc 1 59 0
  75 0002 FFF7FEFF 		bl	__errno
  76              	.LVL1:
  77 0006 1623     		movs	r3, #22
  78 0008 0360     		str	r3, [r0]
  60:Src/syscalls.c **** 	return -1;
  61:Src/syscalls.c **** }
  79              		.loc 1 61 0
  80 000a 4FF0FF30 		mov	r0, #-1
  81 000e 08BD     		pop	{r3, pc}
  82              		.cfi_endproc
  83              	.LFE19:
  85              		.section	.text._exit,"ax",%progbits
  86              		.align	1
  87              		.global	_exit
  88              		.thumb
  89              		.thumb_func
  91              	_exit:
  92              	.LFB20:
  62:Src/syscalls.c **** 
  63:Src/syscalls.c **** void _exit (int status)
  64:Src/syscalls.c **** {
  93              		.loc 1 64 0
  94              		.cfi_startproc
  95              		@ Volatile: function does not return.
  96              		@ args = 0, pretend = 0, frame = 0
  97              		@ frame_needed = 0, uses_anonymous_args = 0
  98              	.LVL2:
  99 0000 08B5     		push	{r3, lr}
 100              	.LCFI1:
 101              		.cfi_def_cfa_offset 8
 102              		.cfi_offset 3, -8
 103              		.cfi_offset 14, -4
 104              	.LBB4:
 105              	.LBB5:
  59:Src/syscalls.c **** 	return -1;
 106              		.loc 1 59 0
 107 0002 FFF7FEFF 		bl	__errno
 108              	.LVL3:
 109 0006 1623     		movs	r3, #22
 110 0008 0360     		str	r3, [r0]
 111              	.L5:
 112 000a FEE7     		b	.L5
 113              	.LBE5:
ARM GAS  /var/folders/jn/652hmfdj2m99syhs9p34dk640000gq/T//ccfGtqtx.s 			page 4


 114              	.LBE4:
 115              		.cfi_endproc
 116              	.LFE20:
 118              		.section	.text._read,"ax",%progbits
 119              		.align	1
 120              		.weak	_read
 121              		.thumb
 122              		.thumb_func
 124              	_read:
 125              	.LFB21:
  65:Src/syscalls.c **** 	_kill(status, -1);
  66:Src/syscalls.c **** 	while (1) {}		/* Make sure we hang here */
  67:Src/syscalls.c **** }
  68:Src/syscalls.c **** 
  69:Src/syscalls.c **** __attribute__((weak)) int _read(int file, char *ptr, int len)
  70:Src/syscalls.c **** {
 126              		.loc 1 70 0
 127              		.cfi_startproc
 128              		@ args = 0, pretend = 0, frame = 0
 129              		@ frame_needed = 0, uses_anonymous_args = 0
 130              	.LVL4:
 131 0000 70B5     		push	{r4, r5, r6, lr}
 132              	.LCFI2:
 133              		.cfi_def_cfa_offset 16
 134              		.cfi_offset 4, -16
 135              		.cfi_offset 5, -12
 136              		.cfi_offset 6, -8
 137              		.cfi_offset 14, -4
 138              		.loc 1 70 0
 139 0002 0E46     		mov	r6, r1
 140 0004 1546     		mov	r5, r2
  71:Src/syscalls.c **** 	int DataIdx;
  72:Src/syscalls.c **** 
  73:Src/syscalls.c **** 	for (DataIdx = 0; DataIdx < len; DataIdx++)
 141              		.loc 1 73 0
 142 0006 0C46     		mov	r4, r1
 143              	.LVL5:
 144              	.L8:
 145              		.loc 1 73 0 is_stmt 0 discriminator 1
 146 0008 A31B     		subs	r3, r4, r6
 147              	.LVL6:
 148 000a 9D42     		cmp	r5, r3
 149 000c 04DD     		ble	.L10
  74:Src/syscalls.c **** 	{
  75:Src/syscalls.c **** 		*ptr++ = __io_getchar();
 150              		.loc 1 75 0 is_stmt 1 discriminator 3
 151 000e FFF7FEFF 		bl	__io_getchar
 152              	.LVL7:
 153 0012 04F8010B 		strb	r0, [r4], #1
 154              	.LVL8:
 155 0016 F7E7     		b	.L8
 156              	.LVL9:
 157              	.L10:
  76:Src/syscalls.c **** 	}
  77:Src/syscalls.c **** 
  78:Src/syscalls.c **** return len;
  79:Src/syscalls.c **** }
ARM GAS  /var/folders/jn/652hmfdj2m99syhs9p34dk640000gq/T//ccfGtqtx.s 			page 5


 158              		.loc 1 79 0
 159 0018 2846     		mov	r0, r5
 160 001a 70BD     		pop	{r4, r5, r6, pc}
 161              		.cfi_endproc
 162              	.LFE21:
 164              		.section	.text._write,"ax",%progbits
 165              		.align	1
 166              		.weak	_write
 167              		.thumb
 168              		.thumb_func
 170              	_write:
 171              	.LFB22:
  80:Src/syscalls.c **** 
  81:Src/syscalls.c **** __attribute__((weak)) int _write(int file, char *ptr, int len)
  82:Src/syscalls.c **** {
 172              		.loc 1 82 0
 173              		.cfi_startproc
 174              		@ args = 0, pretend = 0, frame = 0
 175              		@ frame_needed = 0, uses_anonymous_args = 0
 176              	.LVL10:
 177 0000 70B5     		push	{r4, r5, r6, lr}
 178              	.LCFI3:
 179              		.cfi_def_cfa_offset 16
 180              		.cfi_offset 4, -16
 181              		.cfi_offset 5, -12
 182              		.cfi_offset 6, -8
 183              		.cfi_offset 14, -4
 184              		.loc 1 82 0
 185 0002 0E46     		mov	r6, r1
 186 0004 1546     		mov	r5, r2
  83:Src/syscalls.c **** 	int DataIdx;
  84:Src/syscalls.c **** 
  85:Src/syscalls.c **** 	for (DataIdx = 0; DataIdx < len; DataIdx++)
 187              		.loc 1 85 0
 188 0006 0C46     		mov	r4, r1
 189              	.LVL11:
 190              	.L12:
 191              		.loc 1 85 0 is_stmt 0 discriminator 1
 192 0008 A31B     		subs	r3, r4, r6
 193              	.LVL12:
 194 000a 9D42     		cmp	r5, r3
 195 000c 04DD     		ble	.L14
  86:Src/syscalls.c **** 	{
  87:Src/syscalls.c **** 		__io_putchar(*ptr++);
 196              		.loc 1 87 0 is_stmt 1 discriminator 3
 197 000e 14F8010B 		ldrb	r0, [r4], #1	@ zero_extendqisi2
 198              	.LVL13:
 199 0012 FFF7FEFF 		bl	__io_putchar
 200              	.LVL14:
 201 0016 F7E7     		b	.L12
 202              	.LVL15:
 203              	.L14:
  88:Src/syscalls.c **** 	}
  89:Src/syscalls.c **** 	return len;
  90:Src/syscalls.c **** }
 204              		.loc 1 90 0
 205 0018 2846     		mov	r0, r5
ARM GAS  /var/folders/jn/652hmfdj2m99syhs9p34dk640000gq/T//ccfGtqtx.s 			page 6


 206 001a 70BD     		pop	{r4, r5, r6, pc}
 207              		.cfi_endproc
 208              	.LFE22:
 210              		.section	.text._close,"ax",%progbits
 211              		.align	1
 212              		.global	_close
 213              		.thumb
 214              		.thumb_func
 216              	_close:
 217              	.LFB23:
  91:Src/syscalls.c **** 
  92:Src/syscalls.c **** int _close(int file)
  93:Src/syscalls.c **** {
 218              		.loc 1 93 0
 219              		.cfi_startproc
 220              		@ args = 0, pretend = 0, frame = 0
 221              		@ frame_needed = 0, uses_anonymous_args = 0
 222              		@ link register save eliminated.
 223              	.LVL16:
  94:Src/syscalls.c **** 	return -1;
  95:Src/syscalls.c **** }
 224              		.loc 1 95 0
 225 0000 4FF0FF30 		mov	r0, #-1
 226              	.LVL17:
 227 0004 7047     		bx	lr
 228              		.cfi_endproc
 229              	.LFE23:
 231              		.section	.text._fstat,"ax",%progbits
 232              		.align	1
 233              		.global	_fstat
 234              		.thumb
 235              		.thumb_func
 237              	_fstat:
 238              	.LFB24:
  96:Src/syscalls.c **** 
  97:Src/syscalls.c **** 
  98:Src/syscalls.c **** int _fstat(int file, struct stat *st)
  99:Src/syscalls.c **** {
 239              		.loc 1 99 0
 240              		.cfi_startproc
 241              		@ args = 0, pretend = 0, frame = 0
 242              		@ frame_needed = 0, uses_anonymous_args = 0
 243              		@ link register save eliminated.
 244              	.LVL18:
 100:Src/syscalls.c **** 	st->st_mode = S_IFCHR;
 245              		.loc 1 100 0
 246 0000 4FF40053 		mov	r3, #8192
 247 0004 4B60     		str	r3, [r1, #4]
 101:Src/syscalls.c **** 	return 0;
 102:Src/syscalls.c **** }
 248              		.loc 1 102 0
 249 0006 0020     		movs	r0, #0
 250              	.LVL19:
 251 0008 7047     		bx	lr
 252              		.cfi_endproc
 253              	.LFE24:
 255              		.section	.text._isatty,"ax",%progbits
ARM GAS  /var/folders/jn/652hmfdj2m99syhs9p34dk640000gq/T//ccfGtqtx.s 			page 7


 256              		.align	1
 257              		.global	_isatty
 258              		.thumb
 259              		.thumb_func
 261              	_isatty:
 262              	.LFB25:
 103:Src/syscalls.c **** 
 104:Src/syscalls.c **** int _isatty(int file)
 105:Src/syscalls.c **** {
 263              		.loc 1 105 0
 264              		.cfi_startproc
 265              		@ args = 0, pretend = 0, frame = 0
 266              		@ frame_needed = 0, uses_anonymous_args = 0
 267              		@ link register save eliminated.
 268              	.LVL20:
 106:Src/syscalls.c **** 	return 1;
 107:Src/syscalls.c **** }
 269              		.loc 1 107 0
 270 0000 0120     		movs	r0, #1
 271              	.LVL21:
 272 0002 7047     		bx	lr
 273              		.cfi_endproc
 274              	.LFE25:
 276              		.section	.text._lseek,"ax",%progbits
 277              		.align	1
 278              		.global	_lseek
 279              		.thumb
 280              		.thumb_func
 282              	_lseek:
 283              	.LFB26:
 108:Src/syscalls.c **** 
 109:Src/syscalls.c **** int _lseek(int file, int ptr, int dir)
 110:Src/syscalls.c **** {
 284              		.loc 1 110 0
 285              		.cfi_startproc
 286              		@ args = 0, pretend = 0, frame = 0
 287              		@ frame_needed = 0, uses_anonymous_args = 0
 288              		@ link register save eliminated.
 289              	.LVL22:
 111:Src/syscalls.c **** 	return 0;
 112:Src/syscalls.c **** }
 290              		.loc 1 112 0
 291 0000 0020     		movs	r0, #0
 292              	.LVL23:
 293 0002 7047     		bx	lr
 294              		.cfi_endproc
 295              	.LFE26:
 297              		.section	.text._open,"ax",%progbits
 298              		.align	1
 299              		.global	_open
 300              		.thumb
 301              		.thumb_func
 303              	_open:
 304              	.LFB27:
 113:Src/syscalls.c **** 
 114:Src/syscalls.c **** int _open(char *path, int flags, ...)
 115:Src/syscalls.c **** {
ARM GAS  /var/folders/jn/652hmfdj2m99syhs9p34dk640000gq/T//ccfGtqtx.s 			page 8


 305              		.loc 1 115 0
 306              		.cfi_startproc
 307              		@ args = 4, pretend = 12, frame = 0
 308              		@ frame_needed = 0, uses_anonymous_args = 1
 309              		@ link register save eliminated.
 310              	.LVL24:
 311 0000 0EB4     		push	{r1, r2, r3}
 312              	.LCFI4:
 313              		.cfi_def_cfa_offset 12
 314              		.cfi_offset 1, -12
 315              		.cfi_offset 2, -8
 316              		.cfi_offset 3, -4
 116:Src/syscalls.c **** 	/* Pretend like we always fail */
 117:Src/syscalls.c **** 	return -1;
 118:Src/syscalls.c **** }
 317              		.loc 1 118 0
 318 0002 4FF0FF30 		mov	r0, #-1
 319              	.LVL25:
 320 0006 03B0     		add	sp, sp, #12
 321              	.LCFI5:
 322              		.cfi_restore 3
 323              		.cfi_restore 2
 324              		.cfi_restore 1
 325              		.cfi_def_cfa_offset 0
 326 0008 7047     		bx	lr
 327              		.cfi_endproc
 328              	.LFE27:
 330              		.section	.text._wait,"ax",%progbits
 331              		.align	1
 332              		.global	_wait
 333              		.thumb
 334              		.thumb_func
 336              	_wait:
 337              	.LFB28:
 119:Src/syscalls.c **** 
 120:Src/syscalls.c **** int _wait(int *status)
 121:Src/syscalls.c **** {
 338              		.loc 1 121 0
 339              		.cfi_startproc
 340              		@ args = 0, pretend = 0, frame = 0
 341              		@ frame_needed = 0, uses_anonymous_args = 0
 342              	.LVL26:
 343 0000 08B5     		push	{r3, lr}
 344              	.LCFI6:
 345              		.cfi_def_cfa_offset 8
 346              		.cfi_offset 3, -8
 347              		.cfi_offset 14, -4
 122:Src/syscalls.c **** 	errno = ECHILD;
 348              		.loc 1 122 0
 349 0002 FFF7FEFF 		bl	__errno
 350              	.LVL27:
 351 0006 0A23     		movs	r3, #10
 352 0008 0360     		str	r3, [r0]
 123:Src/syscalls.c **** 	return -1;
 124:Src/syscalls.c **** }
 353              		.loc 1 124 0
 354 000a 4FF0FF30 		mov	r0, #-1
ARM GAS  /var/folders/jn/652hmfdj2m99syhs9p34dk640000gq/T//ccfGtqtx.s 			page 9


 355 000e 08BD     		pop	{r3, pc}
 356              		.cfi_endproc
 357              	.LFE28:
 359              		.section	.text._unlink,"ax",%progbits
 360              		.align	1
 361              		.global	_unlink
 362              		.thumb
 363              		.thumb_func
 365              	_unlink:
 366              	.LFB29:
 125:Src/syscalls.c **** 
 126:Src/syscalls.c **** int _unlink(char *name)
 127:Src/syscalls.c **** {
 367              		.loc 1 127 0
 368              		.cfi_startproc
 369              		@ args = 0, pretend = 0, frame = 0
 370              		@ frame_needed = 0, uses_anonymous_args = 0
 371              	.LVL28:
 372 0000 08B5     		push	{r3, lr}
 373              	.LCFI7:
 374              		.cfi_def_cfa_offset 8
 375              		.cfi_offset 3, -8
 376              		.cfi_offset 14, -4
 128:Src/syscalls.c **** 	errno = ENOENT;
 377              		.loc 1 128 0
 378 0002 FFF7FEFF 		bl	__errno
 379              	.LVL29:
 380 0006 0223     		movs	r3, #2
 381 0008 0360     		str	r3, [r0]
 129:Src/syscalls.c **** 	return -1;
 130:Src/syscalls.c **** }
 382              		.loc 1 130 0
 383 000a 4FF0FF30 		mov	r0, #-1
 384 000e 08BD     		pop	{r3, pc}
 385              		.cfi_endproc
 386              	.LFE29:
 388              		.section	.text._times,"ax",%progbits
 389              		.align	1
 390              		.global	_times
 391              		.thumb
 392              		.thumb_func
 394              	_times:
 395              	.LFB30:
 131:Src/syscalls.c **** 
 132:Src/syscalls.c **** int _times(struct tms *buf)
 133:Src/syscalls.c **** {
 396              		.loc 1 133 0
 397              		.cfi_startproc
 398              		@ args = 0, pretend = 0, frame = 0
 399              		@ frame_needed = 0, uses_anonymous_args = 0
 400              		@ link register save eliminated.
 401              	.LVL30:
 134:Src/syscalls.c **** 	return -1;
 135:Src/syscalls.c **** }
 402              		.loc 1 135 0
 403 0000 4FF0FF30 		mov	r0, #-1
 404              	.LVL31:
ARM GAS  /var/folders/jn/652hmfdj2m99syhs9p34dk640000gq/T//ccfGtqtx.s 			page 10


 405 0004 7047     		bx	lr
 406              		.cfi_endproc
 407              	.LFE30:
 409              		.section	.text._stat,"ax",%progbits
 410              		.align	1
 411              		.global	_stat
 412              		.thumb
 413              		.thumb_func
 415              	_stat:
 416              	.LFB31:
 136:Src/syscalls.c **** 
 137:Src/syscalls.c **** int _stat(char *file, struct stat *st)
 138:Src/syscalls.c **** {
 417              		.loc 1 138 0
 418              		.cfi_startproc
 419              		@ args = 0, pretend = 0, frame = 0
 420              		@ frame_needed = 0, uses_anonymous_args = 0
 421              		@ link register save eliminated.
 422              	.LVL32:
 139:Src/syscalls.c **** 	st->st_mode = S_IFCHR;
 423              		.loc 1 139 0
 424 0000 4FF40053 		mov	r3, #8192
 425 0004 4B60     		str	r3, [r1, #4]
 140:Src/syscalls.c **** 	return 0;
 141:Src/syscalls.c **** }
 426              		.loc 1 141 0
 427 0006 0020     		movs	r0, #0
 428              	.LVL33:
 429 0008 7047     		bx	lr
 430              		.cfi_endproc
 431              	.LFE31:
 433              		.section	.text._link,"ax",%progbits
 434              		.align	1
 435              		.global	_link
 436              		.thumb
 437              		.thumb_func
 439              	_link:
 440              	.LFB32:
 142:Src/syscalls.c **** 
 143:Src/syscalls.c **** int _link(char *old, char *new)
 144:Src/syscalls.c **** {
 441              		.loc 1 144 0
 442              		.cfi_startproc
 443              		@ args = 0, pretend = 0, frame = 0
 444              		@ frame_needed = 0, uses_anonymous_args = 0
 445              	.LVL34:
 446 0000 08B5     		push	{r3, lr}
 447              	.LCFI8:
 448              		.cfi_def_cfa_offset 8
 449              		.cfi_offset 3, -8
 450              		.cfi_offset 14, -4
 145:Src/syscalls.c **** 	errno = EMLINK;
 451              		.loc 1 145 0
 452 0002 FFF7FEFF 		bl	__errno
 453              	.LVL35:
 454 0006 1F23     		movs	r3, #31
 455 0008 0360     		str	r3, [r0]
ARM GAS  /var/folders/jn/652hmfdj2m99syhs9p34dk640000gq/T//ccfGtqtx.s 			page 11


 146:Src/syscalls.c **** 	return -1;
 147:Src/syscalls.c **** }
 456              		.loc 1 147 0
 457 000a 4FF0FF30 		mov	r0, #-1
 458 000e 08BD     		pop	{r3, pc}
 459              		.cfi_endproc
 460              	.LFE32:
 462              		.section	.text._fork,"ax",%progbits
 463              		.align	1
 464              		.global	_fork
 465              		.thumb
 466              		.thumb_func
 468              	_fork:
 469              	.LFB33:
 148:Src/syscalls.c **** 
 149:Src/syscalls.c **** int _fork(void)
 150:Src/syscalls.c **** {
 470              		.loc 1 150 0
 471              		.cfi_startproc
 472              		@ args = 0, pretend = 0, frame = 0
 473              		@ frame_needed = 0, uses_anonymous_args = 0
 474 0000 08B5     		push	{r3, lr}
 475              	.LCFI9:
 476              		.cfi_def_cfa_offset 8
 477              		.cfi_offset 3, -8
 478              		.cfi_offset 14, -4
 151:Src/syscalls.c **** 	errno = EAGAIN;
 479              		.loc 1 151 0
 480 0002 FFF7FEFF 		bl	__errno
 481              	.LVL36:
 482 0006 0B23     		movs	r3, #11
 483 0008 0360     		str	r3, [r0]
 152:Src/syscalls.c **** 	return -1;
 153:Src/syscalls.c **** }
 484              		.loc 1 153 0
 485 000a 4FF0FF30 		mov	r0, #-1
 486 000e 08BD     		pop	{r3, pc}
 487              		.cfi_endproc
 488              	.LFE33:
 490              		.section	.text._execve,"ax",%progbits
 491              		.align	1
 492              		.global	_execve
 493              		.thumb
 494              		.thumb_func
 496              	_execve:
 497              	.LFB34:
 154:Src/syscalls.c **** 
 155:Src/syscalls.c **** int _execve(char *name, char **argv, char **env)
 156:Src/syscalls.c **** {
 498              		.loc 1 156 0
 499              		.cfi_startproc
 500              		@ args = 0, pretend = 0, frame = 0
 501              		@ frame_needed = 0, uses_anonymous_args = 0
 502              	.LVL37:
 503 0000 08B5     		push	{r3, lr}
 504              	.LCFI10:
 505              		.cfi_def_cfa_offset 8
ARM GAS  /var/folders/jn/652hmfdj2m99syhs9p34dk640000gq/T//ccfGtqtx.s 			page 12


 506              		.cfi_offset 3, -8
 507              		.cfi_offset 14, -4
 157:Src/syscalls.c **** 	errno = ENOMEM;
 508              		.loc 1 157 0
 509 0002 FFF7FEFF 		bl	__errno
 510              	.LVL38:
 511 0006 0C23     		movs	r3, #12
 512 0008 0360     		str	r3, [r0]
 158:Src/syscalls.c **** 	return -1;
 159:Src/syscalls.c **** }
 513              		.loc 1 159 0
 514 000a 4FF0FF30 		mov	r0, #-1
 515 000e 08BD     		pop	{r3, pc}
 516              		.cfi_endproc
 517              	.LFE34:
 519              		.global	environ
 520              		.global	__env
 521              		.section	.data.environ,"aw",%progbits
 522              		.align	2
 525              	environ:
 526 0000 00000000 		.word	__env
 527              		.section	.bss.__env,"aw",%nobits
 528              		.align	2
 531              	__env:
 532 0000 00000000 		.space	4
 533              		.weak	__io_putchar
 534              		.weak	__io_getchar
 535              		.text
 536              	.Letext0:
 537              		.file 2 "/usr/local/Cellar/gcc-arm-none-eabi/20160928/arm-none-eabi/include/machine/_default_types
 538              		.file 3 "/usr/local/Cellar/gcc-arm-none-eabi/20160928/arm-none-eabi/include/sys/_types.h"
 539              		.file 4 "/usr/local/Cellar/gcc-arm-none-eabi/20160928/arm-none-eabi/include/sys/_timeval.h"
 540              		.file 5 "/usr/local/Cellar/gcc-arm-none-eabi/20160928/arm-none-eabi/include/sys/types.h"
 541              		.file 6 "/usr/local/Cellar/gcc-arm-none-eabi/20160928/arm-none-eabi/include/sys/stat.h"
 542              		.file 7 "/usr/local/Cellar/gcc-arm-none-eabi/20160928/arm-none-eabi/include/sys/times.h"
 543              		.file 8 "/usr/local/Cellar/gcc-arm-none-eabi/20160928/arm-none-eabi/include/sys/errno.h"
ARM GAS  /var/folders/jn/652hmfdj2m99syhs9p34dk640000gq/T//ccfGtqtx.s 			page 13

