ARM GAS  /var/folders/jn/652hmfdj2m99syhs9p34dk640000gq/T//ccH05yHO.s 			page 1


   1              		.syntax unified
   2              		.cpu cortex-m3
   3              		.fpu softvfp
   4              		.eabi_attribute 20, 1
   5              		.eabi_attribute 21, 1
   6              		.eabi_attribute 23, 3
   7              		.eabi_attribute 24, 1
   8              		.eabi_attribute 25, 1
   9              		.eabi_attribute 26, 1
  10              		.eabi_attribute 30, 4
  11              		.eabi_attribute 34, 1
  12              		.eabi_attribute 18, 4
  13              		.thumb
  14              		.syntax unified
  15              		.file	"stm32f1xx_hal_gpio.c"
  16              		.text
  17              	.Ltext0:
  18              		.cfi_sections	.debug_frame
  19              		.section	.text.HAL_GPIO_Init,"ax",%progbits
  20              		.align	1
  21              		.global	HAL_GPIO_Init
  22              		.thumb
  23              		.thumb_func
  25              	HAL_GPIO_Init:
  26              	.LFB65:
  27              		.file 1 "./Drivers1/STM32F1xx_HAL_Driver/Src/stm32f1xx_hal_gpio.c"
   1:./Drivers1/STM32F1xx_HAL_Driver/Src/stm32f1xx_hal_gpio.c **** /**
   2:./Drivers1/STM32F1xx_HAL_Driver/Src/stm32f1xx_hal_gpio.c ****   ******************************************************************************
   3:./Drivers1/STM32F1xx_HAL_Driver/Src/stm32f1xx_hal_gpio.c ****   * @file    stm32f1xx_hal_gpio.c
   4:./Drivers1/STM32F1xx_HAL_Driver/Src/stm32f1xx_hal_gpio.c ****   * @author  MCD Application Team
   5:./Drivers1/STM32F1xx_HAL_Driver/Src/stm32f1xx_hal_gpio.c ****   * @brief   GPIO HAL module driver.
   6:./Drivers1/STM32F1xx_HAL_Driver/Src/stm32f1xx_hal_gpio.c ****   *          This file provides firmware functions to manage the following
   7:./Drivers1/STM32F1xx_HAL_Driver/Src/stm32f1xx_hal_gpio.c ****   *          functionalities of the General Purpose Input/Output (GPIO) peripheral:
   8:./Drivers1/STM32F1xx_HAL_Driver/Src/stm32f1xx_hal_gpio.c ****   *           + Initialization and de-initialization functions
   9:./Drivers1/STM32F1xx_HAL_Driver/Src/stm32f1xx_hal_gpio.c ****   *           + IO operation functions
  10:./Drivers1/STM32F1xx_HAL_Driver/Src/stm32f1xx_hal_gpio.c ****   *
  11:./Drivers1/STM32F1xx_HAL_Driver/Src/stm32f1xx_hal_gpio.c ****   @verbatim
  12:./Drivers1/STM32F1xx_HAL_Driver/Src/stm32f1xx_hal_gpio.c ****   ==============================================================================
  13:./Drivers1/STM32F1xx_HAL_Driver/Src/stm32f1xx_hal_gpio.c ****                     ##### GPIO Peripheral features #####
  14:./Drivers1/STM32F1xx_HAL_Driver/Src/stm32f1xx_hal_gpio.c ****   ==============================================================================
  15:./Drivers1/STM32F1xx_HAL_Driver/Src/stm32f1xx_hal_gpio.c ****   [..]
  16:./Drivers1/STM32F1xx_HAL_Driver/Src/stm32f1xx_hal_gpio.c ****   Subject to the specific hardware characteristics of each I/O port listed in the datasheet, each
  17:./Drivers1/STM32F1xx_HAL_Driver/Src/stm32f1xx_hal_gpio.c ****   port bit of the General Purpose IO (GPIO) Ports, can be individually configured by software
  18:./Drivers1/STM32F1xx_HAL_Driver/Src/stm32f1xx_hal_gpio.c ****   in several modes:
  19:./Drivers1/STM32F1xx_HAL_Driver/Src/stm32f1xx_hal_gpio.c ****   (+) Input mode
  20:./Drivers1/STM32F1xx_HAL_Driver/Src/stm32f1xx_hal_gpio.c ****   (+) Analog mode
  21:./Drivers1/STM32F1xx_HAL_Driver/Src/stm32f1xx_hal_gpio.c ****   (+) Output mode
  22:./Drivers1/STM32F1xx_HAL_Driver/Src/stm32f1xx_hal_gpio.c ****   (+) Alternate function mode
  23:./Drivers1/STM32F1xx_HAL_Driver/Src/stm32f1xx_hal_gpio.c ****   (+) External interrupt/event lines
  24:./Drivers1/STM32F1xx_HAL_Driver/Src/stm32f1xx_hal_gpio.c **** 
  25:./Drivers1/STM32F1xx_HAL_Driver/Src/stm32f1xx_hal_gpio.c ****   [..]
  26:./Drivers1/STM32F1xx_HAL_Driver/Src/stm32f1xx_hal_gpio.c ****   During and just after reset, the alternate functions and external interrupt
  27:./Drivers1/STM32F1xx_HAL_Driver/Src/stm32f1xx_hal_gpio.c ****   lines are not active and the I/O ports are configured in input floating mode.
  28:./Drivers1/STM32F1xx_HAL_Driver/Src/stm32f1xx_hal_gpio.c **** 
  29:./Drivers1/STM32F1xx_HAL_Driver/Src/stm32f1xx_hal_gpio.c ****   [..]
  30:./Drivers1/STM32F1xx_HAL_Driver/Src/stm32f1xx_hal_gpio.c ****   All GPIO pins have weak internal pull-up and pull-down resistors, which can be
  31:./Drivers1/STM32F1xx_HAL_Driver/Src/stm32f1xx_hal_gpio.c ****   activated or not.
ARM GAS  /var/folders/jn/652hmfdj2m99syhs9p34dk640000gq/T//ccH05yHO.s 			page 2


  32:./Drivers1/STM32F1xx_HAL_Driver/Src/stm32f1xx_hal_gpio.c **** 
  33:./Drivers1/STM32F1xx_HAL_Driver/Src/stm32f1xx_hal_gpio.c ****   [..]
  34:./Drivers1/STM32F1xx_HAL_Driver/Src/stm32f1xx_hal_gpio.c ****   In Output or Alternate mode, each IO can be configured on open-drain or push-pull
  35:./Drivers1/STM32F1xx_HAL_Driver/Src/stm32f1xx_hal_gpio.c ****   type and the IO speed can be selected depending on the VDD value.
  36:./Drivers1/STM32F1xx_HAL_Driver/Src/stm32f1xx_hal_gpio.c **** 
  37:./Drivers1/STM32F1xx_HAL_Driver/Src/stm32f1xx_hal_gpio.c ****   [..]
  38:./Drivers1/STM32F1xx_HAL_Driver/Src/stm32f1xx_hal_gpio.c ****   All ports have external interrupt/event capability. To use external interrupt
  39:./Drivers1/STM32F1xx_HAL_Driver/Src/stm32f1xx_hal_gpio.c ****   lines, the port must be configured in input mode. All available GPIO pins are
  40:./Drivers1/STM32F1xx_HAL_Driver/Src/stm32f1xx_hal_gpio.c ****   connected to the 16 external interrupt/event lines from EXTI0 to EXTI15.
  41:./Drivers1/STM32F1xx_HAL_Driver/Src/stm32f1xx_hal_gpio.c **** 
  42:./Drivers1/STM32F1xx_HAL_Driver/Src/stm32f1xx_hal_gpio.c ****   [..]
  43:./Drivers1/STM32F1xx_HAL_Driver/Src/stm32f1xx_hal_gpio.c ****   The external interrupt/event controller consists of up to 20 edge detectors in connectivity
  44:./Drivers1/STM32F1xx_HAL_Driver/Src/stm32f1xx_hal_gpio.c ****   line devices, or 19 edge detectors in other devices for generating event/interrupt requests.
  45:./Drivers1/STM32F1xx_HAL_Driver/Src/stm32f1xx_hal_gpio.c ****   Each input line can be independently configured to select the type (event or interrupt) and
  46:./Drivers1/STM32F1xx_HAL_Driver/Src/stm32f1xx_hal_gpio.c ****   the corresponding trigger event (rising or falling or both). Each line can also masked
  47:./Drivers1/STM32F1xx_HAL_Driver/Src/stm32f1xx_hal_gpio.c ****   independently. A pending register maintains the status line of the interrupt requests
  48:./Drivers1/STM32F1xx_HAL_Driver/Src/stm32f1xx_hal_gpio.c **** 
  49:./Drivers1/STM32F1xx_HAL_Driver/Src/stm32f1xx_hal_gpio.c ****                      ##### How to use this driver #####
  50:./Drivers1/STM32F1xx_HAL_Driver/Src/stm32f1xx_hal_gpio.c ****   ==============================================================================
  51:./Drivers1/STM32F1xx_HAL_Driver/Src/stm32f1xx_hal_gpio.c ****  [..]
  52:./Drivers1/STM32F1xx_HAL_Driver/Src/stm32f1xx_hal_gpio.c ****    (#) Enable the GPIO APB2 clock using the following function : __HAL_RCC_GPIOx_CLK_ENABLE().
  53:./Drivers1/STM32F1xx_HAL_Driver/Src/stm32f1xx_hal_gpio.c **** 
  54:./Drivers1/STM32F1xx_HAL_Driver/Src/stm32f1xx_hal_gpio.c ****    (#) Configure the GPIO pin(s) using HAL_GPIO_Init().
  55:./Drivers1/STM32F1xx_HAL_Driver/Src/stm32f1xx_hal_gpio.c ****        (++) Configure the IO mode using "Mode" member from GPIO_InitTypeDef structure
  56:./Drivers1/STM32F1xx_HAL_Driver/Src/stm32f1xx_hal_gpio.c ****        (++) Activate Pull-up, Pull-down resistor using "Pull" member from GPIO_InitTypeDef
  57:./Drivers1/STM32F1xx_HAL_Driver/Src/stm32f1xx_hal_gpio.c ****             structure.
  58:./Drivers1/STM32F1xx_HAL_Driver/Src/stm32f1xx_hal_gpio.c ****        (++) In case of Output or alternate function mode selection: the speed is
  59:./Drivers1/STM32F1xx_HAL_Driver/Src/stm32f1xx_hal_gpio.c ****             configured through "Speed" member from GPIO_InitTypeDef structure
  60:./Drivers1/STM32F1xx_HAL_Driver/Src/stm32f1xx_hal_gpio.c ****        (++) Analog mode is required when a pin is to be used as ADC channel
  61:./Drivers1/STM32F1xx_HAL_Driver/Src/stm32f1xx_hal_gpio.c ****             or DAC output.
  62:./Drivers1/STM32F1xx_HAL_Driver/Src/stm32f1xx_hal_gpio.c ****        (++) In case of external interrupt/event selection the "Mode" member from
  63:./Drivers1/STM32F1xx_HAL_Driver/Src/stm32f1xx_hal_gpio.c ****             GPIO_InitTypeDef structure select the type (interrupt or event) and
  64:./Drivers1/STM32F1xx_HAL_Driver/Src/stm32f1xx_hal_gpio.c ****             the corresponding trigger event (rising or falling or both).
  65:./Drivers1/STM32F1xx_HAL_Driver/Src/stm32f1xx_hal_gpio.c **** 
  66:./Drivers1/STM32F1xx_HAL_Driver/Src/stm32f1xx_hal_gpio.c ****    (#) In case of external interrupt/event mode selection, configure NVIC IRQ priority
  67:./Drivers1/STM32F1xx_HAL_Driver/Src/stm32f1xx_hal_gpio.c ****        mapped to the EXTI line using HAL_NVIC_SetPriority() and enable it using
  68:./Drivers1/STM32F1xx_HAL_Driver/Src/stm32f1xx_hal_gpio.c ****        HAL_NVIC_EnableIRQ().
  69:./Drivers1/STM32F1xx_HAL_Driver/Src/stm32f1xx_hal_gpio.c **** 
  70:./Drivers1/STM32F1xx_HAL_Driver/Src/stm32f1xx_hal_gpio.c ****    (#) To get the level of a pin configured in input mode use HAL_GPIO_ReadPin().
  71:./Drivers1/STM32F1xx_HAL_Driver/Src/stm32f1xx_hal_gpio.c **** 
  72:./Drivers1/STM32F1xx_HAL_Driver/Src/stm32f1xx_hal_gpio.c ****    (#) To set/reset the level of a pin configured in output mode use
  73:./Drivers1/STM32F1xx_HAL_Driver/Src/stm32f1xx_hal_gpio.c ****        HAL_GPIO_WritePin()/HAL_GPIO_TogglePin().
  74:./Drivers1/STM32F1xx_HAL_Driver/Src/stm32f1xx_hal_gpio.c **** 
  75:./Drivers1/STM32F1xx_HAL_Driver/Src/stm32f1xx_hal_gpio.c ****    (#) To lock pin configuration until next reset use HAL_GPIO_LockPin().
  76:./Drivers1/STM32F1xx_HAL_Driver/Src/stm32f1xx_hal_gpio.c **** 
  77:./Drivers1/STM32F1xx_HAL_Driver/Src/stm32f1xx_hal_gpio.c ****    (#) During and just after reset, the alternate functions are not
  78:./Drivers1/STM32F1xx_HAL_Driver/Src/stm32f1xx_hal_gpio.c ****        active and the GPIO pins are configured in input floating mode (except JTAG
  79:./Drivers1/STM32F1xx_HAL_Driver/Src/stm32f1xx_hal_gpio.c ****        pins).
  80:./Drivers1/STM32F1xx_HAL_Driver/Src/stm32f1xx_hal_gpio.c **** 
  81:./Drivers1/STM32F1xx_HAL_Driver/Src/stm32f1xx_hal_gpio.c ****    (#) The LSE oscillator pins OSC32_IN and OSC32_OUT can be used as general purpose
  82:./Drivers1/STM32F1xx_HAL_Driver/Src/stm32f1xx_hal_gpio.c ****        (PC14 and PC15, respectively) when the LSE oscillator is off. The LSE has
  83:./Drivers1/STM32F1xx_HAL_Driver/Src/stm32f1xx_hal_gpio.c ****        priority over the GPIO function.
  84:./Drivers1/STM32F1xx_HAL_Driver/Src/stm32f1xx_hal_gpio.c **** 
  85:./Drivers1/STM32F1xx_HAL_Driver/Src/stm32f1xx_hal_gpio.c ****    (#) The HSE oscillator pins OSC_IN/OSC_OUT can be used as
  86:./Drivers1/STM32F1xx_HAL_Driver/Src/stm32f1xx_hal_gpio.c ****        general purpose PD0 and PD1, respectively, when the HSE oscillator is off.
  87:./Drivers1/STM32F1xx_HAL_Driver/Src/stm32f1xx_hal_gpio.c ****        The HSE has priority over the GPIO function.
  88:./Drivers1/STM32F1xx_HAL_Driver/Src/stm32f1xx_hal_gpio.c **** 
ARM GAS  /var/folders/jn/652hmfdj2m99syhs9p34dk640000gq/T//ccH05yHO.s 			page 3


  89:./Drivers1/STM32F1xx_HAL_Driver/Src/stm32f1xx_hal_gpio.c ****   @endverbatim
  90:./Drivers1/STM32F1xx_HAL_Driver/Src/stm32f1xx_hal_gpio.c ****   ******************************************************************************
  91:./Drivers1/STM32F1xx_HAL_Driver/Src/stm32f1xx_hal_gpio.c ****   * @attention
  92:./Drivers1/STM32F1xx_HAL_Driver/Src/stm32f1xx_hal_gpio.c ****   *
  93:./Drivers1/STM32F1xx_HAL_Driver/Src/stm32f1xx_hal_gpio.c ****   * <h2><center>&copy; Copyright (c) 2016 STMicroelectronics.
  94:./Drivers1/STM32F1xx_HAL_Driver/Src/stm32f1xx_hal_gpio.c ****   * All rights reserved.</center></h2>
  95:./Drivers1/STM32F1xx_HAL_Driver/Src/stm32f1xx_hal_gpio.c ****   *
  96:./Drivers1/STM32F1xx_HAL_Driver/Src/stm32f1xx_hal_gpio.c ****   * This software component is licensed by ST under BSD 3-Clause license,
  97:./Drivers1/STM32F1xx_HAL_Driver/Src/stm32f1xx_hal_gpio.c ****   * the "License"; You may not use this file except in compliance with the
  98:./Drivers1/STM32F1xx_HAL_Driver/Src/stm32f1xx_hal_gpio.c ****   * License. You may obtain a copy of the License at:
  99:./Drivers1/STM32F1xx_HAL_Driver/Src/stm32f1xx_hal_gpio.c ****   *                        opensource.org/licenses/BSD-3-Clause
 100:./Drivers1/STM32F1xx_HAL_Driver/Src/stm32f1xx_hal_gpio.c ****   *
 101:./Drivers1/STM32F1xx_HAL_Driver/Src/stm32f1xx_hal_gpio.c ****   ******************************************************************************
 102:./Drivers1/STM32F1xx_HAL_Driver/Src/stm32f1xx_hal_gpio.c ****   */
 103:./Drivers1/STM32F1xx_HAL_Driver/Src/stm32f1xx_hal_gpio.c **** 
 104:./Drivers1/STM32F1xx_HAL_Driver/Src/stm32f1xx_hal_gpio.c **** /* Includes ------------------------------------------------------------------*/
 105:./Drivers1/STM32F1xx_HAL_Driver/Src/stm32f1xx_hal_gpio.c **** #include "stm32f1xx_hal.h"
 106:./Drivers1/STM32F1xx_HAL_Driver/Src/stm32f1xx_hal_gpio.c **** 
 107:./Drivers1/STM32F1xx_HAL_Driver/Src/stm32f1xx_hal_gpio.c **** /** @addtogroup STM32F1xx_HAL_Driver
 108:./Drivers1/STM32F1xx_HAL_Driver/Src/stm32f1xx_hal_gpio.c ****   * @{
 109:./Drivers1/STM32F1xx_HAL_Driver/Src/stm32f1xx_hal_gpio.c ****   */
 110:./Drivers1/STM32F1xx_HAL_Driver/Src/stm32f1xx_hal_gpio.c **** 
 111:./Drivers1/STM32F1xx_HAL_Driver/Src/stm32f1xx_hal_gpio.c **** /** @defgroup GPIO GPIO
 112:./Drivers1/STM32F1xx_HAL_Driver/Src/stm32f1xx_hal_gpio.c ****   * @brief GPIO HAL module driver
 113:./Drivers1/STM32F1xx_HAL_Driver/Src/stm32f1xx_hal_gpio.c ****   * @{
 114:./Drivers1/STM32F1xx_HAL_Driver/Src/stm32f1xx_hal_gpio.c ****   */
 115:./Drivers1/STM32F1xx_HAL_Driver/Src/stm32f1xx_hal_gpio.c **** 
 116:./Drivers1/STM32F1xx_HAL_Driver/Src/stm32f1xx_hal_gpio.c **** #ifdef HAL_GPIO_MODULE_ENABLED
 117:./Drivers1/STM32F1xx_HAL_Driver/Src/stm32f1xx_hal_gpio.c **** 
 118:./Drivers1/STM32F1xx_HAL_Driver/Src/stm32f1xx_hal_gpio.c **** /* Private typedef -----------------------------------------------------------*/
 119:./Drivers1/STM32F1xx_HAL_Driver/Src/stm32f1xx_hal_gpio.c **** /* Private define ------------------------------------------------------------*/
 120:./Drivers1/STM32F1xx_HAL_Driver/Src/stm32f1xx_hal_gpio.c **** /** @addtogroup GPIO_Private_Constants GPIO Private Constants
 121:./Drivers1/STM32F1xx_HAL_Driver/Src/stm32f1xx_hal_gpio.c ****   * @{
 122:./Drivers1/STM32F1xx_HAL_Driver/Src/stm32f1xx_hal_gpio.c ****   */
 123:./Drivers1/STM32F1xx_HAL_Driver/Src/stm32f1xx_hal_gpio.c **** #define GPIO_MODE             0x00000003u
 124:./Drivers1/STM32F1xx_HAL_Driver/Src/stm32f1xx_hal_gpio.c **** #define EXTI_MODE             0x10000000u
 125:./Drivers1/STM32F1xx_HAL_Driver/Src/stm32f1xx_hal_gpio.c **** #define GPIO_MODE_IT          0x00010000u
 126:./Drivers1/STM32F1xx_HAL_Driver/Src/stm32f1xx_hal_gpio.c **** #define GPIO_MODE_EVT         0x00020000u
 127:./Drivers1/STM32F1xx_HAL_Driver/Src/stm32f1xx_hal_gpio.c **** #define RISING_EDGE           0x00100000u
 128:./Drivers1/STM32F1xx_HAL_Driver/Src/stm32f1xx_hal_gpio.c **** #define FALLING_EDGE          0x00200000u
 129:./Drivers1/STM32F1xx_HAL_Driver/Src/stm32f1xx_hal_gpio.c **** #define GPIO_OUTPUT_TYPE      0x00000010u
 130:./Drivers1/STM32F1xx_HAL_Driver/Src/stm32f1xx_hal_gpio.c **** 
 131:./Drivers1/STM32F1xx_HAL_Driver/Src/stm32f1xx_hal_gpio.c **** #define GPIO_NUMBER           16u
 132:./Drivers1/STM32F1xx_HAL_Driver/Src/stm32f1xx_hal_gpio.c **** 
 133:./Drivers1/STM32F1xx_HAL_Driver/Src/stm32f1xx_hal_gpio.c **** /* Definitions for bit manipulation of CRL and CRH register */
 134:./Drivers1/STM32F1xx_HAL_Driver/Src/stm32f1xx_hal_gpio.c **** #define  GPIO_CR_MODE_INPUT         0x00000000u /*!< 00: Input mode (reset state)  */
 135:./Drivers1/STM32F1xx_HAL_Driver/Src/stm32f1xx_hal_gpio.c **** #define  GPIO_CR_CNF_ANALOG         0x00000000u /*!< 00: Analog mode  */
 136:./Drivers1/STM32F1xx_HAL_Driver/Src/stm32f1xx_hal_gpio.c **** #define  GPIO_CR_CNF_INPUT_FLOATING 0x00000004u /*!< 01: Floating input (reset state)  */
 137:./Drivers1/STM32F1xx_HAL_Driver/Src/stm32f1xx_hal_gpio.c **** #define  GPIO_CR_CNF_INPUT_PU_PD    0x00000008u /*!< 10: Input with pull-up / pull-down  */
 138:./Drivers1/STM32F1xx_HAL_Driver/Src/stm32f1xx_hal_gpio.c **** #define  GPIO_CR_CNF_GP_OUTPUT_PP   0x00000000u /*!< 00: General purpose output push-pull  */
 139:./Drivers1/STM32F1xx_HAL_Driver/Src/stm32f1xx_hal_gpio.c **** #define  GPIO_CR_CNF_GP_OUTPUT_OD   0x00000004u /*!< 01: General purpose output Open-drain  */
 140:./Drivers1/STM32F1xx_HAL_Driver/Src/stm32f1xx_hal_gpio.c **** #define  GPIO_CR_CNF_AF_OUTPUT_PP   0x00000008u /*!< 10: Alternate function output Push-pull  */
 141:./Drivers1/STM32F1xx_HAL_Driver/Src/stm32f1xx_hal_gpio.c **** #define  GPIO_CR_CNF_AF_OUTPUT_OD   0x0000000Cu /*!< 11: Alternate function output Open-drain  */
 142:./Drivers1/STM32F1xx_HAL_Driver/Src/stm32f1xx_hal_gpio.c **** 
 143:./Drivers1/STM32F1xx_HAL_Driver/Src/stm32f1xx_hal_gpio.c **** /**
 144:./Drivers1/STM32F1xx_HAL_Driver/Src/stm32f1xx_hal_gpio.c ****   * @}
 145:./Drivers1/STM32F1xx_HAL_Driver/Src/stm32f1xx_hal_gpio.c ****   */
ARM GAS  /var/folders/jn/652hmfdj2m99syhs9p34dk640000gq/T//ccH05yHO.s 			page 4


 146:./Drivers1/STM32F1xx_HAL_Driver/Src/stm32f1xx_hal_gpio.c **** /* Private macro -------------------------------------------------------------*/
 147:./Drivers1/STM32F1xx_HAL_Driver/Src/stm32f1xx_hal_gpio.c **** /* Private variables ---------------------------------------------------------*/
 148:./Drivers1/STM32F1xx_HAL_Driver/Src/stm32f1xx_hal_gpio.c **** /* Private function prototypes -----------------------------------------------*/
 149:./Drivers1/STM32F1xx_HAL_Driver/Src/stm32f1xx_hal_gpio.c **** /* Private functions ---------------------------------------------------------*/
 150:./Drivers1/STM32F1xx_HAL_Driver/Src/stm32f1xx_hal_gpio.c **** /* Exported functions --------------------------------------------------------*/
 151:./Drivers1/STM32F1xx_HAL_Driver/Src/stm32f1xx_hal_gpio.c **** /** @defgroup GPIO_Exported_Functions GPIO Exported Functions
 152:./Drivers1/STM32F1xx_HAL_Driver/Src/stm32f1xx_hal_gpio.c ****   * @{
 153:./Drivers1/STM32F1xx_HAL_Driver/Src/stm32f1xx_hal_gpio.c ****   */
 154:./Drivers1/STM32F1xx_HAL_Driver/Src/stm32f1xx_hal_gpio.c **** 
 155:./Drivers1/STM32F1xx_HAL_Driver/Src/stm32f1xx_hal_gpio.c **** /** @defgroup GPIO_Exported_Functions_Group1 Initialization and de-initialization functions
 156:./Drivers1/STM32F1xx_HAL_Driver/Src/stm32f1xx_hal_gpio.c ****  *  @brief    Initialization and Configuration functions
 157:./Drivers1/STM32F1xx_HAL_Driver/Src/stm32f1xx_hal_gpio.c ****  *
 158:./Drivers1/STM32F1xx_HAL_Driver/Src/stm32f1xx_hal_gpio.c **** @verbatim
 159:./Drivers1/STM32F1xx_HAL_Driver/Src/stm32f1xx_hal_gpio.c ****  ===============================================================================
 160:./Drivers1/STM32F1xx_HAL_Driver/Src/stm32f1xx_hal_gpio.c ****               ##### Initialization and de-initialization functions #####
 161:./Drivers1/STM32F1xx_HAL_Driver/Src/stm32f1xx_hal_gpio.c ****  ===============================================================================
 162:./Drivers1/STM32F1xx_HAL_Driver/Src/stm32f1xx_hal_gpio.c ****   [..]
 163:./Drivers1/STM32F1xx_HAL_Driver/Src/stm32f1xx_hal_gpio.c ****     This section provides functions allowing to initialize and de-initialize the GPIOs
 164:./Drivers1/STM32F1xx_HAL_Driver/Src/stm32f1xx_hal_gpio.c ****     to be ready for use.
 165:./Drivers1/STM32F1xx_HAL_Driver/Src/stm32f1xx_hal_gpio.c **** 
 166:./Drivers1/STM32F1xx_HAL_Driver/Src/stm32f1xx_hal_gpio.c **** @endverbatim
 167:./Drivers1/STM32F1xx_HAL_Driver/Src/stm32f1xx_hal_gpio.c ****   * @{
 168:./Drivers1/STM32F1xx_HAL_Driver/Src/stm32f1xx_hal_gpio.c ****   */
 169:./Drivers1/STM32F1xx_HAL_Driver/Src/stm32f1xx_hal_gpio.c **** 
 170:./Drivers1/STM32F1xx_HAL_Driver/Src/stm32f1xx_hal_gpio.c **** 
 171:./Drivers1/STM32F1xx_HAL_Driver/Src/stm32f1xx_hal_gpio.c **** /**
 172:./Drivers1/STM32F1xx_HAL_Driver/Src/stm32f1xx_hal_gpio.c ****   * @brief  Initializes the GPIOx peripheral according to the specified parameters in the GPIO_Init
 173:./Drivers1/STM32F1xx_HAL_Driver/Src/stm32f1xx_hal_gpio.c ****   * @param  GPIOx: where x can be (A..G depending on device used) to select the GPIO peripheral
 174:./Drivers1/STM32F1xx_HAL_Driver/Src/stm32f1xx_hal_gpio.c ****   * @param  GPIO_Init: pointer to a GPIO_InitTypeDef structure that contains
 175:./Drivers1/STM32F1xx_HAL_Driver/Src/stm32f1xx_hal_gpio.c ****   *         the configuration information for the specified GPIO peripheral.
 176:./Drivers1/STM32F1xx_HAL_Driver/Src/stm32f1xx_hal_gpio.c ****   * @retval None
 177:./Drivers1/STM32F1xx_HAL_Driver/Src/stm32f1xx_hal_gpio.c ****   */
 178:./Drivers1/STM32F1xx_HAL_Driver/Src/stm32f1xx_hal_gpio.c **** void HAL_GPIO_Init(GPIO_TypeDef  *GPIOx, GPIO_InitTypeDef *GPIO_Init)
 179:./Drivers1/STM32F1xx_HAL_Driver/Src/stm32f1xx_hal_gpio.c **** {
  28              		.loc 1 179 0
  29              		.cfi_startproc
  30              		@ args = 0, pretend = 0, frame = 16
  31              		@ frame_needed = 0, uses_anonymous_args = 0
  32              	.LVL0:
  33 0000 2DE9F04F 		push	{r4, r5, r6, r7, r8, r9, r10, fp, lr}
  34              	.LCFI0:
  35              		.cfi_def_cfa_offset 36
  36              		.cfi_offset 4, -36
  37              		.cfi_offset 5, -32
  38              		.cfi_offset 6, -28
  39              		.cfi_offset 7, -24
  40              		.cfi_offset 8, -20
  41              		.cfi_offset 9, -16
  42              		.cfi_offset 10, -12
  43              		.cfi_offset 11, -8
  44              		.cfi_offset 14, -4
 180:./Drivers1/STM32F1xx_HAL_Driver/Src/stm32f1xx_hal_gpio.c ****   uint32_t position = 0x00u;
 181:./Drivers1/STM32F1xx_HAL_Driver/Src/stm32f1xx_hal_gpio.c ****   uint32_t ioposition;
 182:./Drivers1/STM32F1xx_HAL_Driver/Src/stm32f1xx_hal_gpio.c ****   uint32_t iocurrent;
 183:./Drivers1/STM32F1xx_HAL_Driver/Src/stm32f1xx_hal_gpio.c ****   uint32_t temp;
 184:./Drivers1/STM32F1xx_HAL_Driver/Src/stm32f1xx_hal_gpio.c ****   uint32_t config = 0x00u;
  45              		.loc 1 184 0
ARM GAS  /var/folders/jn/652hmfdj2m99syhs9p34dk640000gq/T//ccH05yHO.s 			page 5


  46 0004 0024     		movs	r4, #0
 180:./Drivers1/STM32F1xx_HAL_Driver/Src/stm32f1xx_hal_gpio.c ****   uint32_t position = 0x00u;
  47              		.loc 1 180 0
  48 0006 2646     		mov	r6, r4
  49              	.LBB2:
 185:./Drivers1/STM32F1xx_HAL_Driver/Src/stm32f1xx_hal_gpio.c ****   __IO uint32_t *configregister; /* Store the address of CRL or CRH register based on pin number */
 186:./Drivers1/STM32F1xx_HAL_Driver/Src/stm32f1xx_hal_gpio.c ****   uint32_t registeroffset;       /* offset used during computation of CNF and MODE bits placement i
 187:./Drivers1/STM32F1xx_HAL_Driver/Src/stm32f1xx_hal_gpio.c **** 
 188:./Drivers1/STM32F1xx_HAL_Driver/Src/stm32f1xx_hal_gpio.c ****   /* Check the parameters */
 189:./Drivers1/STM32F1xx_HAL_Driver/Src/stm32f1xx_hal_gpio.c ****   assert_param(IS_GPIO_ALL_INSTANCE(GPIOx));
 190:./Drivers1/STM32F1xx_HAL_Driver/Src/stm32f1xx_hal_gpio.c ****   assert_param(IS_GPIO_PIN(GPIO_Init->Pin));
 191:./Drivers1/STM32F1xx_HAL_Driver/Src/stm32f1xx_hal_gpio.c ****   assert_param(IS_GPIO_MODE(GPIO_Init->Mode));
 192:./Drivers1/STM32F1xx_HAL_Driver/Src/stm32f1xx_hal_gpio.c **** 
 193:./Drivers1/STM32F1xx_HAL_Driver/Src/stm32f1xx_hal_gpio.c ****   /* Configure the port pins */
 194:./Drivers1/STM32F1xx_HAL_Driver/Src/stm32f1xx_hal_gpio.c ****   while (((GPIO_Init->Pin) >> position) != 0x00u)
 195:./Drivers1/STM32F1xx_HAL_Driver/Src/stm32f1xx_hal_gpio.c ****   {
 196:./Drivers1/STM32F1xx_HAL_Driver/Src/stm32f1xx_hal_gpio.c ****     /* Get the IO position */
 197:./Drivers1/STM32F1xx_HAL_Driver/Src/stm32f1xx_hal_gpio.c ****     ioposition = (0x01uL << position);
 198:./Drivers1/STM32F1xx_HAL_Driver/Src/stm32f1xx_hal_gpio.c **** 
 199:./Drivers1/STM32F1xx_HAL_Driver/Src/stm32f1xx_hal_gpio.c ****     /* Get the current IO position */
 200:./Drivers1/STM32F1xx_HAL_Driver/Src/stm32f1xx_hal_gpio.c ****     iocurrent = (uint32_t)(GPIO_Init->Pin) & ioposition;
 201:./Drivers1/STM32F1xx_HAL_Driver/Src/stm32f1xx_hal_gpio.c **** 
 202:./Drivers1/STM32F1xx_HAL_Driver/Src/stm32f1xx_hal_gpio.c ****     if (iocurrent == ioposition)
 203:./Drivers1/STM32F1xx_HAL_Driver/Src/stm32f1xx_hal_gpio.c ****     {
 204:./Drivers1/STM32F1xx_HAL_Driver/Src/stm32f1xx_hal_gpio.c ****       /* Check the Alternate function parameters */
 205:./Drivers1/STM32F1xx_HAL_Driver/Src/stm32f1xx_hal_gpio.c ****       assert_param(IS_GPIO_AF_INSTANCE(GPIOx));
 206:./Drivers1/STM32F1xx_HAL_Driver/Src/stm32f1xx_hal_gpio.c **** 
 207:./Drivers1/STM32F1xx_HAL_Driver/Src/stm32f1xx_hal_gpio.c ****       /* Based on the required mode, filling config variable with MODEy[1:0] and CNFy[3:2] correspo
 208:./Drivers1/STM32F1xx_HAL_Driver/Src/stm32f1xx_hal_gpio.c ****       switch (GPIO_Init->Mode)
 209:./Drivers1/STM32F1xx_HAL_Driver/Src/stm32f1xx_hal_gpio.c ****       {
 210:./Drivers1/STM32F1xx_HAL_Driver/Src/stm32f1xx_hal_gpio.c ****         /* If we are configuring the pin in OUTPUT push-pull mode */
 211:./Drivers1/STM32F1xx_HAL_Driver/Src/stm32f1xx_hal_gpio.c ****         case GPIO_MODE_OUTPUT_PP:
 212:./Drivers1/STM32F1xx_HAL_Driver/Src/stm32f1xx_hal_gpio.c ****           /* Check the GPIO speed parameter */
 213:./Drivers1/STM32F1xx_HAL_Driver/Src/stm32f1xx_hal_gpio.c ****           assert_param(IS_GPIO_SPEED(GPIO_Init->Speed));
 214:./Drivers1/STM32F1xx_HAL_Driver/Src/stm32f1xx_hal_gpio.c ****           config = GPIO_Init->Speed + GPIO_CR_CNF_GP_OUTPUT_PP;
 215:./Drivers1/STM32F1xx_HAL_Driver/Src/stm32f1xx_hal_gpio.c ****           break;
 216:./Drivers1/STM32F1xx_HAL_Driver/Src/stm32f1xx_hal_gpio.c **** 
 217:./Drivers1/STM32F1xx_HAL_Driver/Src/stm32f1xx_hal_gpio.c ****         /* If we are configuring the pin in OUTPUT open-drain mode */
 218:./Drivers1/STM32F1xx_HAL_Driver/Src/stm32f1xx_hal_gpio.c ****         case GPIO_MODE_OUTPUT_OD:
 219:./Drivers1/STM32F1xx_HAL_Driver/Src/stm32f1xx_hal_gpio.c ****           /* Check the GPIO speed parameter */
 220:./Drivers1/STM32F1xx_HAL_Driver/Src/stm32f1xx_hal_gpio.c ****           assert_param(IS_GPIO_SPEED(GPIO_Init->Speed));
 221:./Drivers1/STM32F1xx_HAL_Driver/Src/stm32f1xx_hal_gpio.c ****           config = GPIO_Init->Speed + GPIO_CR_CNF_GP_OUTPUT_OD;
 222:./Drivers1/STM32F1xx_HAL_Driver/Src/stm32f1xx_hal_gpio.c ****           break;
 223:./Drivers1/STM32F1xx_HAL_Driver/Src/stm32f1xx_hal_gpio.c **** 
 224:./Drivers1/STM32F1xx_HAL_Driver/Src/stm32f1xx_hal_gpio.c ****         /* If we are configuring the pin in ALTERNATE FUNCTION push-pull mode */
 225:./Drivers1/STM32F1xx_HAL_Driver/Src/stm32f1xx_hal_gpio.c ****         case GPIO_MODE_AF_PP:
 226:./Drivers1/STM32F1xx_HAL_Driver/Src/stm32f1xx_hal_gpio.c ****           /* Check the GPIO speed parameter */
 227:./Drivers1/STM32F1xx_HAL_Driver/Src/stm32f1xx_hal_gpio.c ****           assert_param(IS_GPIO_SPEED(GPIO_Init->Speed));
 228:./Drivers1/STM32F1xx_HAL_Driver/Src/stm32f1xx_hal_gpio.c ****           config = GPIO_Init->Speed + GPIO_CR_CNF_AF_OUTPUT_PP;
 229:./Drivers1/STM32F1xx_HAL_Driver/Src/stm32f1xx_hal_gpio.c ****           break;
 230:./Drivers1/STM32F1xx_HAL_Driver/Src/stm32f1xx_hal_gpio.c **** 
 231:./Drivers1/STM32F1xx_HAL_Driver/Src/stm32f1xx_hal_gpio.c ****         /* If we are configuring the pin in ALTERNATE FUNCTION open-drain mode */
 232:./Drivers1/STM32F1xx_HAL_Driver/Src/stm32f1xx_hal_gpio.c ****         case GPIO_MODE_AF_OD:
 233:./Drivers1/STM32F1xx_HAL_Driver/Src/stm32f1xx_hal_gpio.c ****           /* Check the GPIO speed parameter */
 234:./Drivers1/STM32F1xx_HAL_Driver/Src/stm32f1xx_hal_gpio.c ****           assert_param(IS_GPIO_SPEED(GPIO_Init->Speed));
 235:./Drivers1/STM32F1xx_HAL_Driver/Src/stm32f1xx_hal_gpio.c ****           config = GPIO_Init->Speed + GPIO_CR_CNF_AF_OUTPUT_OD;
 236:./Drivers1/STM32F1xx_HAL_Driver/Src/stm32f1xx_hal_gpio.c ****           break;
ARM GAS  /var/folders/jn/652hmfdj2m99syhs9p34dk640000gq/T//ccH05yHO.s 			page 6


 237:./Drivers1/STM32F1xx_HAL_Driver/Src/stm32f1xx_hal_gpio.c **** 
 238:./Drivers1/STM32F1xx_HAL_Driver/Src/stm32f1xx_hal_gpio.c ****         /* If we are configuring the pin in INPUT (also applicable to EVENT and IT mode) */
 239:./Drivers1/STM32F1xx_HAL_Driver/Src/stm32f1xx_hal_gpio.c ****         case GPIO_MODE_INPUT:
 240:./Drivers1/STM32F1xx_HAL_Driver/Src/stm32f1xx_hal_gpio.c ****         case GPIO_MODE_IT_RISING:
 241:./Drivers1/STM32F1xx_HAL_Driver/Src/stm32f1xx_hal_gpio.c ****         case GPIO_MODE_IT_FALLING:
 242:./Drivers1/STM32F1xx_HAL_Driver/Src/stm32f1xx_hal_gpio.c ****         case GPIO_MODE_IT_RISING_FALLING:
 243:./Drivers1/STM32F1xx_HAL_Driver/Src/stm32f1xx_hal_gpio.c ****         case GPIO_MODE_EVT_RISING:
 244:./Drivers1/STM32F1xx_HAL_Driver/Src/stm32f1xx_hal_gpio.c ****         case GPIO_MODE_EVT_FALLING:
 245:./Drivers1/STM32F1xx_HAL_Driver/Src/stm32f1xx_hal_gpio.c ****         case GPIO_MODE_EVT_RISING_FALLING:
 246:./Drivers1/STM32F1xx_HAL_Driver/Src/stm32f1xx_hal_gpio.c ****           /* Check the GPIO pull parameter */
 247:./Drivers1/STM32F1xx_HAL_Driver/Src/stm32f1xx_hal_gpio.c ****           assert_param(IS_GPIO_PULL(GPIO_Init->Pull));
 248:./Drivers1/STM32F1xx_HAL_Driver/Src/stm32f1xx_hal_gpio.c ****           if (GPIO_Init->Pull == GPIO_NOPULL)
 249:./Drivers1/STM32F1xx_HAL_Driver/Src/stm32f1xx_hal_gpio.c ****           {
 250:./Drivers1/STM32F1xx_HAL_Driver/Src/stm32f1xx_hal_gpio.c ****             config = GPIO_CR_MODE_INPUT + GPIO_CR_CNF_INPUT_FLOATING;
 251:./Drivers1/STM32F1xx_HAL_Driver/Src/stm32f1xx_hal_gpio.c ****           }
 252:./Drivers1/STM32F1xx_HAL_Driver/Src/stm32f1xx_hal_gpio.c ****           else if (GPIO_Init->Pull == GPIO_PULLUP)
 253:./Drivers1/STM32F1xx_HAL_Driver/Src/stm32f1xx_hal_gpio.c ****           {
 254:./Drivers1/STM32F1xx_HAL_Driver/Src/stm32f1xx_hal_gpio.c ****             config = GPIO_CR_MODE_INPUT + GPIO_CR_CNF_INPUT_PU_PD;
 255:./Drivers1/STM32F1xx_HAL_Driver/Src/stm32f1xx_hal_gpio.c **** 
 256:./Drivers1/STM32F1xx_HAL_Driver/Src/stm32f1xx_hal_gpio.c ****             /* Set the corresponding ODR bit */
 257:./Drivers1/STM32F1xx_HAL_Driver/Src/stm32f1xx_hal_gpio.c ****             GPIOx->BSRR = ioposition;
 258:./Drivers1/STM32F1xx_HAL_Driver/Src/stm32f1xx_hal_gpio.c ****           }
 259:./Drivers1/STM32F1xx_HAL_Driver/Src/stm32f1xx_hal_gpio.c ****           else /* GPIO_PULLDOWN */
 260:./Drivers1/STM32F1xx_HAL_Driver/Src/stm32f1xx_hal_gpio.c ****           {
 261:./Drivers1/STM32F1xx_HAL_Driver/Src/stm32f1xx_hal_gpio.c ****             config = GPIO_CR_MODE_INPUT + GPIO_CR_CNF_INPUT_PU_PD;
 262:./Drivers1/STM32F1xx_HAL_Driver/Src/stm32f1xx_hal_gpio.c **** 
 263:./Drivers1/STM32F1xx_HAL_Driver/Src/stm32f1xx_hal_gpio.c ****             /* Reset the corresponding ODR bit */
 264:./Drivers1/STM32F1xx_HAL_Driver/Src/stm32f1xx_hal_gpio.c ****             GPIOx->BRR = ioposition;
 265:./Drivers1/STM32F1xx_HAL_Driver/Src/stm32f1xx_hal_gpio.c ****           }
 266:./Drivers1/STM32F1xx_HAL_Driver/Src/stm32f1xx_hal_gpio.c ****           break;
 267:./Drivers1/STM32F1xx_HAL_Driver/Src/stm32f1xx_hal_gpio.c **** 
 268:./Drivers1/STM32F1xx_HAL_Driver/Src/stm32f1xx_hal_gpio.c ****         /* If we are configuring the pin in INPUT analog mode */
 269:./Drivers1/STM32F1xx_HAL_Driver/Src/stm32f1xx_hal_gpio.c ****         case GPIO_MODE_ANALOG:
 270:./Drivers1/STM32F1xx_HAL_Driver/Src/stm32f1xx_hal_gpio.c ****           config = GPIO_CR_MODE_INPUT + GPIO_CR_CNF_ANALOG;
 271:./Drivers1/STM32F1xx_HAL_Driver/Src/stm32f1xx_hal_gpio.c ****           break;
 272:./Drivers1/STM32F1xx_HAL_Driver/Src/stm32f1xx_hal_gpio.c **** 
 273:./Drivers1/STM32F1xx_HAL_Driver/Src/stm32f1xx_hal_gpio.c ****         /* Parameters are checked with assert_param */
 274:./Drivers1/STM32F1xx_HAL_Driver/Src/stm32f1xx_hal_gpio.c ****         default:
 275:./Drivers1/STM32F1xx_HAL_Driver/Src/stm32f1xx_hal_gpio.c ****           break;
 276:./Drivers1/STM32F1xx_HAL_Driver/Src/stm32f1xx_hal_gpio.c ****       }
 277:./Drivers1/STM32F1xx_HAL_Driver/Src/stm32f1xx_hal_gpio.c **** 
 278:./Drivers1/STM32F1xx_HAL_Driver/Src/stm32f1xx_hal_gpio.c ****       /* Check if the current bit belongs to first half or last half of the pin count number
 279:./Drivers1/STM32F1xx_HAL_Driver/Src/stm32f1xx_hal_gpio.c ****        in order to address CRH or CRL register*/
 280:./Drivers1/STM32F1xx_HAL_Driver/Src/stm32f1xx_hal_gpio.c ****       configregister = (iocurrent < GPIO_PIN_8) ? &GPIOx->CRL     : &GPIOx->CRH;
 281:./Drivers1/STM32F1xx_HAL_Driver/Src/stm32f1xx_hal_gpio.c ****       registeroffset = (iocurrent < GPIO_PIN_8) ? (position << 2u) : ((position - 8u) << 2u);
 282:./Drivers1/STM32F1xx_HAL_Driver/Src/stm32f1xx_hal_gpio.c **** 
 283:./Drivers1/STM32F1xx_HAL_Driver/Src/stm32f1xx_hal_gpio.c ****       /* Apply the new configuration of the pin to the register */
 284:./Drivers1/STM32F1xx_HAL_Driver/Src/stm32f1xx_hal_gpio.c ****       MODIFY_REG((*configregister), ((GPIO_CRL_MODE0 | GPIO_CRL_CNF0) << registeroffset), (config <
 285:./Drivers1/STM32F1xx_HAL_Driver/Src/stm32f1xx_hal_gpio.c **** 
 286:./Drivers1/STM32F1xx_HAL_Driver/Src/stm32f1xx_hal_gpio.c ****       /*--------------------- EXTI Mode Configuration ------------------------*/
 287:./Drivers1/STM32F1xx_HAL_Driver/Src/stm32f1xx_hal_gpio.c ****       /* Configure the External Interrupt or event for the current IO */
 288:./Drivers1/STM32F1xx_HAL_Driver/Src/stm32f1xx_hal_gpio.c ****       if ((GPIO_Init->Mode & EXTI_MODE) == EXTI_MODE)
 289:./Drivers1/STM32F1xx_HAL_Driver/Src/stm32f1xx_hal_gpio.c ****       {
 290:./Drivers1/STM32F1xx_HAL_Driver/Src/stm32f1xx_hal_gpio.c ****         /* Enable AFIO Clock */
 291:./Drivers1/STM32F1xx_HAL_Driver/Src/stm32f1xx_hal_gpio.c ****         __HAL_RCC_AFIO_CLK_ENABLE();
  50              		.loc 1 291 0
  51 0008 DFF8A0E1 		ldr	lr, .L47+16
ARM GAS  /var/folders/jn/652hmfdj2m99syhs9p34dk640000gq/T//ccH05yHO.s 			page 7


  52 000c 634B     		ldr	r3, .L47
  53              	.LBE2:
 208:./Drivers1/STM32F1xx_HAL_Driver/Src/stm32f1xx_hal_gpio.c ****       {
  54              		.loc 1 208 0
  55 000e DFF8A0C1 		ldr	ip, .L47+20
  56 0012 DFF8A081 		ldr	r8, .L47+24
 179:./Drivers1/STM32F1xx_HAL_Driver/Src/stm32f1xx_hal_gpio.c ****   uint32_t position = 0x00u;
  57              		.loc 1 179 0
  58 0016 85B0     		sub	sp, sp, #20
  59              	.LCFI1:
  60              		.cfi_def_cfa_offset 56
  61              	.LVL1:
  62              	.L2:
 194:./Drivers1/STM32F1xx_HAL_Driver/Src/stm32f1xx_hal_gpio.c ****   {
  63              		.loc 1 194 0
  64 0018 0D68     		ldr	r5, [r1]
  65 001a 35FA06F2 		lsrs	r2, r5, r6
  66 001e 00F0BA80 		beq	.L46
 197:./Drivers1/STM32F1xx_HAL_Driver/Src/stm32f1xx_hal_gpio.c **** 
  67              		.loc 1 197 0
  68 0022 0122     		movs	r2, #1
  69 0024 B240     		lsls	r2, r2, r6
  70              	.LVL2:
 202:./Drivers1/STM32F1xx_HAL_Driver/Src/stm32f1xx_hal_gpio.c ****     {
  71              		.loc 1 202 0
  72 0026 32EA0505 		bics	r5, r2, r5
  73              	.LVL3:
  74 002a 40F0B280 		bne	.L3
 208:./Drivers1/STM32F1xx_HAL_Driver/Src/stm32f1xx_hal_gpio.c ****       {
  75              		.loc 1 208 0
  76 002e 4D68     		ldr	r5, [r1, #4]
  77 0030 122D     		cmp	r5, #18
  78 0032 27D0     		beq	.L5
  79 0034 0ED8     		bhi	.L6
  80 0036 022D     		cmp	r5, #2
  81 0038 21D0     		beq	.L7
  82 003a 04D8     		bhi	.L8
  83 003c 2DB3     		cbz	r5, .L9
  84 003e 012D     		cmp	r5, #1
  85 0040 2CD1     		bne	.L4
 214:./Drivers1/STM32F1xx_HAL_Driver/Src/stm32f1xx_hal_gpio.c ****           break;
  86              		.loc 1 214 0
  87 0042 CC68     		ldr	r4, [r1, #12]
  88              	.LVL4:
 215:./Drivers1/STM32F1xx_HAL_Driver/Src/stm32f1xx_hal_gpio.c **** 
  89              		.loc 1 215 0
  90 0044 2AE0     		b	.L4
  91              	.L8:
 208:./Drivers1/STM32F1xx_HAL_Driver/Src/stm32f1xx_hal_gpio.c ****       {
  92              		.loc 1 208 0
  93 0046 032D     		cmp	r5, #3
  94 0048 17D0     		beq	.L11
  95 004a 112D     		cmp	r5, #17
  96 004c 26D1     		bne	.L4
 221:./Drivers1/STM32F1xx_HAL_Driver/Src/stm32f1xx_hal_gpio.c ****           break;
  97              		.loc 1 221 0
  98 004e CC68     		ldr	r4, [r1, #12]
ARM GAS  /var/folders/jn/652hmfdj2m99syhs9p34dk640000gq/T//ccH05yHO.s 			page 8


  99              	.LVL5:
 100 0050 0434     		adds	r4, r4, #4
 101              	.LVL6:
 222:./Drivers1/STM32F1xx_HAL_Driver/Src/stm32f1xx_hal_gpio.c **** 
 102              		.loc 1 222 0
 103 0052 23E0     		b	.L4
 104              	.L6:
 208:./Drivers1/STM32F1xx_HAL_Driver/Src/stm32f1xx_hal_gpio.c ****       {
 105              		.loc 1 208 0
 106 0054 524F     		ldr	r7, .L47+4
 107 0056 BD42     		cmp	r5, r7
 108 0058 17D0     		beq	.L9
 109 005a 06D8     		bhi	.L13
 110 005c A7F58017 		sub	r7, r7, #1048576
 111 0060 BD42     		cmp	r5, r7
 112 0062 12D0     		beq	.L9
 113 0064 07F58037 		add	r7, r7, #65536
 114 0068 04E0     		b	.L38
 115              	.L13:
 116 006a 6545     		cmp	r5, ip
 117 006c 0DD0     		beq	.L9
 118 006e 4545     		cmp	r5, r8
 119 0070 0BD0     		beq	.L9
 120 0072 4C4F     		ldr	r7, .L47+8
 121              	.L38:
 122 0074 BD42     		cmp	r5, r7
 123 0076 11D1     		bne	.L4
 124 0078 07E0     		b	.L9
 125              	.L11:
 270:./Drivers1/STM32F1xx_HAL_Driver/Src/stm32f1xx_hal_gpio.c ****           break;
 126              		.loc 1 270 0
 127 007a 0024     		movs	r4, #0
 128              	.LVL7:
 129 007c 0EE0     		b	.L4
 130              	.LVL8:
 131              	.L7:
 228:./Drivers1/STM32F1xx_HAL_Driver/Src/stm32f1xx_hal_gpio.c ****           break;
 132              		.loc 1 228 0
 133 007e CC68     		ldr	r4, [r1, #12]
 134              	.LVL9:
 135 0080 0834     		adds	r4, r4, #8
 136              	.LVL10:
 229:./Drivers1/STM32F1xx_HAL_Driver/Src/stm32f1xx_hal_gpio.c **** 
 137              		.loc 1 229 0
 138 0082 0BE0     		b	.L4
 139              	.L5:
 235:./Drivers1/STM32F1xx_HAL_Driver/Src/stm32f1xx_hal_gpio.c ****           break;
 140              		.loc 1 235 0
 141 0084 CC68     		ldr	r4, [r1, #12]
 142              	.LVL11:
 143 0086 0C34     		adds	r4, r4, #12
 144              	.LVL12:
 236:./Drivers1/STM32F1xx_HAL_Driver/Src/stm32f1xx_hal_gpio.c **** 
 145              		.loc 1 236 0
 146 0088 08E0     		b	.L4
 147              	.L9:
 248:./Drivers1/STM32F1xx_HAL_Driver/Src/stm32f1xx_hal_gpio.c ****           {
ARM GAS  /var/folders/jn/652hmfdj2m99syhs9p34dk640000gq/T//ccH05yHO.s 			page 9


 148              		.loc 1 248 0
 149 008a 8C68     		ldr	r4, [r1, #8]
 150              	.LVL13:
 151 008c 2CB1     		cbz	r4, .L26
 252:./Drivers1/STM32F1xx_HAL_Driver/Src/stm32f1xx_hal_gpio.c ****           {
 152              		.loc 1 252 0
 153 008e 012C     		cmp	r4, #1
 154              	.LVL14:
 257:./Drivers1/STM32F1xx_HAL_Driver/Src/stm32f1xx_hal_gpio.c ****           }
 155              		.loc 1 257 0
 156 0090 0CBF     		ite	eq
 157 0092 0261     		streq	r2, [r0, #16]
 264:./Drivers1/STM32F1xx_HAL_Driver/Src/stm32f1xx_hal_gpio.c ****           }
 158              		.loc 1 264 0
 159 0094 4261     		strne	r2, [r0, #20]
 261:./Drivers1/STM32F1xx_HAL_Driver/Src/stm32f1xx_hal_gpio.c **** 
 160              		.loc 1 261 0
 161 0096 0824     		movs	r4, #8
 162 0098 00E0     		b	.L4
 163              	.LVL15:
 164              	.L26:
 250:./Drivers1/STM32F1xx_HAL_Driver/Src/stm32f1xx_hal_gpio.c ****           }
 165              		.loc 1 250 0
 166 009a 0424     		movs	r4, #4
 167              	.L4:
 168              	.LVL16:
 280:./Drivers1/STM32F1xx_HAL_Driver/Src/stm32f1xx_hal_gpio.c ****       registeroffset = (iocurrent < GPIO_PIN_8) ? (position << 2u) : ((position - 8u) << 2u);
 169              		.loc 1 280 0
 170 009c FF2A     		cmp	r2, #255
 171 009e 96BF     		itet	ls
 172 00a0 0768     		ldrls	r7, [r0]
 173 00a2 4768     		ldrhi	r7, [r0, #4]
 174 00a4 8346     		movls	fp, r0
 175              	.LVL17:
 176 00a6 B946     		mov	r9, r7
 281:./Drivers1/STM32F1xx_HAL_Driver/Src/stm32f1xx_hal_gpio.c **** 
 177              		.loc 1 281 0
 178 00a8 8ABF     		itet	hi
 179 00aa A6F10805 		subhi	r5, r6, #8
 180 00ae B500     		lslls	r5, r6, #2
 181 00b0 AD00     		lslhi	r5, r5, #2
 284:./Drivers1/STM32F1xx_HAL_Driver/Src/stm32f1xx_hal_gpio.c **** 
 182              		.loc 1 284 0
 183 00b2 4FF00F07 		mov	r7, #15
 184 00b6 07FA05FA 		lsl	r10, r7, r5
 185 00ba 29EA0A09 		bic	r9, r9, r10
 186 00be 04FA05F5 		lsl	r5, r4, r5
 280:./Drivers1/STM32F1xx_HAL_Driver/Src/stm32f1xx_hal_gpio.c ****       registeroffset = (iocurrent < GPIO_PIN_8) ? (position << 2u) : ((position - 8u) << 2u);
 187              		.loc 1 280 0
 188 00c2 88BF     		it	hi
 189 00c4 00F1040B 		addhi	fp, r0, #4
 190              	.LVL18:
 284:./Drivers1/STM32F1xx_HAL_Driver/Src/stm32f1xx_hal_gpio.c **** 
 191              		.loc 1 284 0
 192 00c8 49EA0505 		orr	r5, r9, r5
 193 00cc CBF80050 		str	r5, [fp]
 194              	.LVL19:
ARM GAS  /var/folders/jn/652hmfdj2m99syhs9p34dk640000gq/T//ccH05yHO.s 			page 10


 288:./Drivers1/STM32F1xx_HAL_Driver/Src/stm32f1xx_hal_gpio.c ****       {
 195              		.loc 1 288 0
 196 00d0 D1F80490 		ldr	r9, [r1, #4]
 197 00d4 19F0805F 		tst	r9, #268435456
 198 00d8 5BD0     		beq	.L3
 199              	.LBB3:
 200              		.loc 1 291 0
 201 00da DEF81850 		ldr	r5, [lr, #24]
 202              	.LBE3:
 292:./Drivers1/STM32F1xx_HAL_Driver/Src/stm32f1xx_hal_gpio.c ****         temp = AFIO->EXTICR[position >> 2u];
 293:./Drivers1/STM32F1xx_HAL_Driver/Src/stm32f1xx_hal_gpio.c ****         CLEAR_BIT(temp, (0x0Fu) << (4u * (position & 0x03u)));
 203              		.loc 1 293 0
 204 00de 06F0030A 		and	r10, r6, #3
 205              	.LBB4:
 291:./Drivers1/STM32F1xx_HAL_Driver/Src/stm32f1xx_hal_gpio.c ****         temp = AFIO->EXTICR[position >> 2u];
 206              		.loc 1 291 0
 207 00e2 45F00105 		orr	r5, r5, #1
 208 00e6 CEF81850 		str	r5, [lr, #24]
 209 00ea DEF81850 		ldr	r5, [lr, #24]
 210              	.LBE4:
 211              		.loc 1 293 0
 212 00ee 4FEA8A0A 		lsl	r10, r10, #2
 213              	.LBB5:
 291:./Drivers1/STM32F1xx_HAL_Driver/Src/stm32f1xx_hal_gpio.c ****         temp = AFIO->EXTICR[position >> 2u];
 214              		.loc 1 291 0
 215 00f2 05F00105 		and	r5, r5, #1
 216 00f6 0395     		str	r5, [sp, #12]
 217 00f8 039D     		ldr	r5, [sp, #12]
 218 00fa 26F00305 		bic	r5, r6, #3
 219 00fe 05F18045 		add	r5, r5, #1073741824
 220 0102 05F58035 		add	r5, r5, #65536
 221              	.LBE5:
 292:./Drivers1/STM32F1xx_HAL_Driver/Src/stm32f1xx_hal_gpio.c ****         temp = AFIO->EXTICR[position >> 2u];
 222              		.loc 1 292 0
 223 0106 D5F808B0 		ldr	fp, [r5, #8]
 224              	.LVL20:
 225              		.loc 1 293 0
 226 010a 07FA0AF7 		lsl	r7, r7, r10
 227 010e 2BEA0707 		bic	r7, fp, r7
 228 0112 0197     		str	r7, [sp, #4]
 229              	.LVL21:
 294:./Drivers1/STM32F1xx_HAL_Driver/Src/stm32f1xx_hal_gpio.c ****         SET_BIT(temp, (GPIO_GET_INDEX(GPIOx)) << (4u * (position & 0x03u)));
 230              		.loc 1 294 0
 231 0114 244F     		ldr	r7, .L47+12
 232              	.LVL22:
 233 0116 B842     		cmp	r0, r7
 234 0118 10D0     		beq	.L27
 235              		.loc 1 294 0 is_stmt 0 discriminator 1
 236 011a 07F58067 		add	r7, r7, #1024
 237 011e B842     		cmp	r0, r7
 238 0120 0FD0     		beq	.L28
 239              		.loc 1 294 0 discriminator 3
 240 0122 07F58067 		add	r7, r7, #1024
 241 0126 B842     		cmp	r0, r7
 242 0128 0ED0     		beq	.L29
 243              		.loc 1 294 0 discriminator 5
 244 012a 07F58067 		add	r7, r7, #1024
ARM GAS  /var/folders/jn/652hmfdj2m99syhs9p34dk640000gq/T//ccH05yHO.s 			page 11


 245 012e B842     		cmp	r0, r7
 246 0130 0CBF     		ite	eq
 247 0132 4FF0030B 		moveq	fp, #3
 248 0136 4FF0040B 		movne	fp, #4
 249 013a 07E0     		b	.L17
 250              	.L27:
 251              		.loc 1 294 0
 252 013c 4FF0000B 		mov	fp, #0
 253 0140 04E0     		b	.L17
 254              	.L28:
 255 0142 4FF0010B 		mov	fp, #1
 256 0146 01E0     		b	.L17
 257              	.L29:
 258 0148 4FF0020B 		mov	fp, #2
 259              	.L17:
 260              		.loc 1 294 0 discriminator 16
 261 014c 019F     		ldr	r7, [sp, #4]
 262 014e 0BFA0AFA 		lsl	r10, fp, r10
 263 0152 4AEA0707 		orr	r7, r10, r7
 264              	.LVL23:
 295:./Drivers1/STM32F1xx_HAL_Driver/Src/stm32f1xx_hal_gpio.c ****         AFIO->EXTICR[position >> 2u] = temp;
 265              		.loc 1 295 0 is_stmt 1 discriminator 16
 266 0156 AF60     		str	r7, [r5, #8]
 296:./Drivers1/STM32F1xx_HAL_Driver/Src/stm32f1xx_hal_gpio.c **** 
 297:./Drivers1/STM32F1xx_HAL_Driver/Src/stm32f1xx_hal_gpio.c **** 
 298:./Drivers1/STM32F1xx_HAL_Driver/Src/stm32f1xx_hal_gpio.c ****         /* Configure the interrupt mask */
 299:./Drivers1/STM32F1xx_HAL_Driver/Src/stm32f1xx_hal_gpio.c ****         if ((GPIO_Init->Mode & GPIO_MODE_IT) == GPIO_MODE_IT)
 300:./Drivers1/STM32F1xx_HAL_Driver/Src/stm32f1xx_hal_gpio.c ****         {
 301:./Drivers1/STM32F1xx_HAL_Driver/Src/stm32f1xx_hal_gpio.c ****           SET_BIT(EXTI->IMR, iocurrent);
 267              		.loc 1 301 0 discriminator 16
 268 0158 1D68     		ldr	r5, [r3]
 299:./Drivers1/STM32F1xx_HAL_Driver/Src/stm32f1xx_hal_gpio.c ****         {
 269              		.loc 1 299 0 discriminator 16
 270 015a 19F4803F 		tst	r9, #65536
 271              		.loc 1 301 0 discriminator 16
 272 015e 14BF     		ite	ne
 273 0160 1543     		orrne	r5, r5, r2
 302:./Drivers1/STM32F1xx_HAL_Driver/Src/stm32f1xx_hal_gpio.c ****         }
 303:./Drivers1/STM32F1xx_HAL_Driver/Src/stm32f1xx_hal_gpio.c ****         else
 304:./Drivers1/STM32F1xx_HAL_Driver/Src/stm32f1xx_hal_gpio.c ****         {
 305:./Drivers1/STM32F1xx_HAL_Driver/Src/stm32f1xx_hal_gpio.c ****           CLEAR_BIT(EXTI->IMR, iocurrent);
 274              		.loc 1 305 0 discriminator 16
 275 0162 9543     		biceq	r5, r5, r2
 276 0164 1D60     		str	r5, [r3]
 306:./Drivers1/STM32F1xx_HAL_Driver/Src/stm32f1xx_hal_gpio.c ****         }
 307:./Drivers1/STM32F1xx_HAL_Driver/Src/stm32f1xx_hal_gpio.c **** 
 308:./Drivers1/STM32F1xx_HAL_Driver/Src/stm32f1xx_hal_gpio.c ****         /* Configure the event mask */
 309:./Drivers1/STM32F1xx_HAL_Driver/Src/stm32f1xx_hal_gpio.c ****         if ((GPIO_Init->Mode & GPIO_MODE_EVT) == GPIO_MODE_EVT)
 310:./Drivers1/STM32F1xx_HAL_Driver/Src/stm32f1xx_hal_gpio.c ****         {
 311:./Drivers1/STM32F1xx_HAL_Driver/Src/stm32f1xx_hal_gpio.c ****           SET_BIT(EXTI->EMR, iocurrent);
 277              		.loc 1 311 0 discriminator 16
 278 0166 5D68     		ldr	r5, [r3, #4]
 309:./Drivers1/STM32F1xx_HAL_Driver/Src/stm32f1xx_hal_gpio.c ****         {
 279              		.loc 1 309 0 discriminator 16
 280 0168 19F4003F 		tst	r9, #131072
 281              		.loc 1 311 0 discriminator 16
 282 016c 14BF     		ite	ne
ARM GAS  /var/folders/jn/652hmfdj2m99syhs9p34dk640000gq/T//ccH05yHO.s 			page 12


 283 016e 1543     		orrne	r5, r5, r2
 312:./Drivers1/STM32F1xx_HAL_Driver/Src/stm32f1xx_hal_gpio.c ****         }
 313:./Drivers1/STM32F1xx_HAL_Driver/Src/stm32f1xx_hal_gpio.c ****         else
 314:./Drivers1/STM32F1xx_HAL_Driver/Src/stm32f1xx_hal_gpio.c ****         {
 315:./Drivers1/STM32F1xx_HAL_Driver/Src/stm32f1xx_hal_gpio.c ****           CLEAR_BIT(EXTI->EMR, iocurrent);
 284              		.loc 1 315 0 discriminator 16
 285 0170 9543     		biceq	r5, r5, r2
 286 0172 5D60     		str	r5, [r3, #4]
 316:./Drivers1/STM32F1xx_HAL_Driver/Src/stm32f1xx_hal_gpio.c ****         }
 317:./Drivers1/STM32F1xx_HAL_Driver/Src/stm32f1xx_hal_gpio.c **** 
 318:./Drivers1/STM32F1xx_HAL_Driver/Src/stm32f1xx_hal_gpio.c ****         /* Enable or disable the rising trigger */
 319:./Drivers1/STM32F1xx_HAL_Driver/Src/stm32f1xx_hal_gpio.c ****         if ((GPIO_Init->Mode & RISING_EDGE) == RISING_EDGE)
 320:./Drivers1/STM32F1xx_HAL_Driver/Src/stm32f1xx_hal_gpio.c ****         {
 321:./Drivers1/STM32F1xx_HAL_Driver/Src/stm32f1xx_hal_gpio.c ****           SET_BIT(EXTI->RTSR, iocurrent);
 287              		.loc 1 321 0 discriminator 16
 288 0174 9D68     		ldr	r5, [r3, #8]
 319:./Drivers1/STM32F1xx_HAL_Driver/Src/stm32f1xx_hal_gpio.c ****         {
 289              		.loc 1 319 0 discriminator 16
 290 0176 19F4801F 		tst	r9, #1048576
 291              		.loc 1 321 0 discriminator 16
 292 017a 14BF     		ite	ne
 293 017c 1543     		orrne	r5, r5, r2
 322:./Drivers1/STM32F1xx_HAL_Driver/Src/stm32f1xx_hal_gpio.c ****         }
 323:./Drivers1/STM32F1xx_HAL_Driver/Src/stm32f1xx_hal_gpio.c ****         else
 324:./Drivers1/STM32F1xx_HAL_Driver/Src/stm32f1xx_hal_gpio.c ****         {
 325:./Drivers1/STM32F1xx_HAL_Driver/Src/stm32f1xx_hal_gpio.c ****           CLEAR_BIT(EXTI->RTSR, iocurrent);
 294              		.loc 1 325 0 discriminator 16
 295 017e 9543     		biceq	r5, r5, r2
 296 0180 9D60     		str	r5, [r3, #8]
 326:./Drivers1/STM32F1xx_HAL_Driver/Src/stm32f1xx_hal_gpio.c ****         }
 327:./Drivers1/STM32F1xx_HAL_Driver/Src/stm32f1xx_hal_gpio.c **** 
 328:./Drivers1/STM32F1xx_HAL_Driver/Src/stm32f1xx_hal_gpio.c ****         /* Enable or disable the falling trigger */
 329:./Drivers1/STM32F1xx_HAL_Driver/Src/stm32f1xx_hal_gpio.c ****         if ((GPIO_Init->Mode & FALLING_EDGE) == FALLING_EDGE)
 330:./Drivers1/STM32F1xx_HAL_Driver/Src/stm32f1xx_hal_gpio.c ****         {
 331:./Drivers1/STM32F1xx_HAL_Driver/Src/stm32f1xx_hal_gpio.c ****           SET_BIT(EXTI->FTSR, iocurrent);
 297              		.loc 1 331 0 discriminator 16
 298 0182 DD68     		ldr	r5, [r3, #12]
 329:./Drivers1/STM32F1xx_HAL_Driver/Src/stm32f1xx_hal_gpio.c ****         {
 299              		.loc 1 329 0 discriminator 16
 300 0184 19F4001F 		tst	r9, #2097152
 301              		.loc 1 331 0 discriminator 16
 302 0188 14BF     		ite	ne
 303 018a 2A43     		orrne	r2, r2, r5
 304              	.LVL24:
 332:./Drivers1/STM32F1xx_HAL_Driver/Src/stm32f1xx_hal_gpio.c ****         }
 333:./Drivers1/STM32F1xx_HAL_Driver/Src/stm32f1xx_hal_gpio.c ****         else
 334:./Drivers1/STM32F1xx_HAL_Driver/Src/stm32f1xx_hal_gpio.c ****         {
 335:./Drivers1/STM32F1xx_HAL_Driver/Src/stm32f1xx_hal_gpio.c ****           CLEAR_BIT(EXTI->FTSR, iocurrent);
 305              		.loc 1 335 0 discriminator 16
 306 018c 25EA0202 		biceq	r2, r5, r2
 307 0190 DA60     		str	r2, [r3, #12]
 308              	.LVL25:
 309              	.L3:
 336:./Drivers1/STM32F1xx_HAL_Driver/Src/stm32f1xx_hal_gpio.c ****         }
 337:./Drivers1/STM32F1xx_HAL_Driver/Src/stm32f1xx_hal_gpio.c ****       }
 338:./Drivers1/STM32F1xx_HAL_Driver/Src/stm32f1xx_hal_gpio.c ****     }
 339:./Drivers1/STM32F1xx_HAL_Driver/Src/stm32f1xx_hal_gpio.c **** 
ARM GAS  /var/folders/jn/652hmfdj2m99syhs9p34dk640000gq/T//ccH05yHO.s 			page 13


 340:./Drivers1/STM32F1xx_HAL_Driver/Src/stm32f1xx_hal_gpio.c **** 	position++;
 310              		.loc 1 340 0
 311 0192 0136     		adds	r6, r6, #1
 312              	.LVL26:
 313 0194 40E7     		b	.L2
 314              	.LVL27:
 315              	.L46:
 341:./Drivers1/STM32F1xx_HAL_Driver/Src/stm32f1xx_hal_gpio.c ****   }
 342:./Drivers1/STM32F1xx_HAL_Driver/Src/stm32f1xx_hal_gpio.c **** }
 316              		.loc 1 342 0
 317 0196 05B0     		add	sp, sp, #20
 318              	.LCFI2:
 319              		.cfi_def_cfa_offset 36
 320              		@ sp needed
 321 0198 BDE8F08F 		pop	{r4, r5, r6, r7, r8, r9, r10, fp, pc}
 322              	.LVL28:
 323              	.L48:
 324              		.align	2
 325              	.L47:
 326 019c 00040140 		.word	1073808384
 327 01a0 00002110 		.word	270598144
 328 01a4 00002210 		.word	270663680
 329 01a8 00080140 		.word	1073809408
 330 01ac 00100240 		.word	1073876992
 331 01b0 00003110 		.word	271646720
 332 01b4 00003210 		.word	271712256
 333              		.cfi_endproc
 334              	.LFE65:
 336              		.section	.text.HAL_GPIO_DeInit,"ax",%progbits
 337              		.align	1
 338              		.global	HAL_GPIO_DeInit
 339              		.thumb
 340              		.thumb_func
 342              	HAL_GPIO_DeInit:
 343              	.LFB66:
 343:./Drivers1/STM32F1xx_HAL_Driver/Src/stm32f1xx_hal_gpio.c **** 
 344:./Drivers1/STM32F1xx_HAL_Driver/Src/stm32f1xx_hal_gpio.c **** /**
 345:./Drivers1/STM32F1xx_HAL_Driver/Src/stm32f1xx_hal_gpio.c ****   * @brief  De-initializes the GPIOx peripheral registers to their default reset values.
 346:./Drivers1/STM32F1xx_HAL_Driver/Src/stm32f1xx_hal_gpio.c ****   * @param  GPIOx: where x can be (A..G depending on device used) to select the GPIO peripheral
 347:./Drivers1/STM32F1xx_HAL_Driver/Src/stm32f1xx_hal_gpio.c ****   * @param  GPIO_Pin: specifies the port bit to be written.
 348:./Drivers1/STM32F1xx_HAL_Driver/Src/stm32f1xx_hal_gpio.c ****   *         This parameter can be one of GPIO_PIN_x where x can be (0..15).
 349:./Drivers1/STM32F1xx_HAL_Driver/Src/stm32f1xx_hal_gpio.c ****   * @retval None
 350:./Drivers1/STM32F1xx_HAL_Driver/Src/stm32f1xx_hal_gpio.c ****   */
 351:./Drivers1/STM32F1xx_HAL_Driver/Src/stm32f1xx_hal_gpio.c **** void HAL_GPIO_DeInit(GPIO_TypeDef  *GPIOx, uint32_t GPIO_Pin)
 352:./Drivers1/STM32F1xx_HAL_Driver/Src/stm32f1xx_hal_gpio.c **** {
 344              		.loc 1 352 0
 345              		.cfi_startproc
 346              		@ args = 0, pretend = 0, frame = 0
 347              		@ frame_needed = 0, uses_anonymous_args = 0
 348              	.LVL29:
 349 0000 2DE9F04F 		push	{r4, r5, r6, r7, r8, r9, r10, fp, lr}
 350              	.LCFI3:
 351              		.cfi_def_cfa_offset 36
 352              		.cfi_offset 4, -36
 353              		.cfi_offset 5, -32
 354              		.cfi_offset 6, -28
 355              		.cfi_offset 7, -24
ARM GAS  /var/folders/jn/652hmfdj2m99syhs9p34dk640000gq/T//ccH05yHO.s 			page 14


 356              		.cfi_offset 8, -20
 357              		.cfi_offset 9, -16
 358              		.cfi_offset 10, -12
 359              		.cfi_offset 11, -8
 360              		.cfi_offset 14, -4
 353:./Drivers1/STM32F1xx_HAL_Driver/Src/stm32f1xx_hal_gpio.c ****   uint32_t position = 0x00u;
 354:./Drivers1/STM32F1xx_HAL_Driver/Src/stm32f1xx_hal_gpio.c ****   uint32_t iocurrent;
 355:./Drivers1/STM32F1xx_HAL_Driver/Src/stm32f1xx_hal_gpio.c ****   uint32_t tmp;
 356:./Drivers1/STM32F1xx_HAL_Driver/Src/stm32f1xx_hal_gpio.c ****   __IO uint32_t *configregister; /* Store the address of CRL or CRH register based on pin number */
 357:./Drivers1/STM32F1xx_HAL_Driver/Src/stm32f1xx_hal_gpio.c ****   uint32_t registeroffset;
 358:./Drivers1/STM32F1xx_HAL_Driver/Src/stm32f1xx_hal_gpio.c **** 
 359:./Drivers1/STM32F1xx_HAL_Driver/Src/stm32f1xx_hal_gpio.c ****   /* Check the parameters */
 360:./Drivers1/STM32F1xx_HAL_Driver/Src/stm32f1xx_hal_gpio.c ****   assert_param(IS_GPIO_ALL_INSTANCE(GPIOx));
 361:./Drivers1/STM32F1xx_HAL_Driver/Src/stm32f1xx_hal_gpio.c ****   assert_param(IS_GPIO_PIN(GPIO_Pin));
 362:./Drivers1/STM32F1xx_HAL_Driver/Src/stm32f1xx_hal_gpio.c **** 
 363:./Drivers1/STM32F1xx_HAL_Driver/Src/stm32f1xx_hal_gpio.c ****   /* Configure the port pins */
 364:./Drivers1/STM32F1xx_HAL_Driver/Src/stm32f1xx_hal_gpio.c ****   while ((GPIO_Pin >> position) != 0u)
 365:./Drivers1/STM32F1xx_HAL_Driver/Src/stm32f1xx_hal_gpio.c ****   {
 366:./Drivers1/STM32F1xx_HAL_Driver/Src/stm32f1xx_hal_gpio.c ****     /* Get current io position */
 367:./Drivers1/STM32F1xx_HAL_Driver/Src/stm32f1xx_hal_gpio.c ****     iocurrent = (GPIO_Pin) & (1uL << position);
 368:./Drivers1/STM32F1xx_HAL_Driver/Src/stm32f1xx_hal_gpio.c **** 
 369:./Drivers1/STM32F1xx_HAL_Driver/Src/stm32f1xx_hal_gpio.c ****     if (iocurrent)
 370:./Drivers1/STM32F1xx_HAL_Driver/Src/stm32f1xx_hal_gpio.c ****     {
 371:./Drivers1/STM32F1xx_HAL_Driver/Src/stm32f1xx_hal_gpio.c ****       /*------------------------- EXTI Mode Configuration --------------------*/
 372:./Drivers1/STM32F1xx_HAL_Driver/Src/stm32f1xx_hal_gpio.c ****       /* Clear the External Interrupt or Event for the current IO */
 373:./Drivers1/STM32F1xx_HAL_Driver/Src/stm32f1xx_hal_gpio.c **** 
 374:./Drivers1/STM32F1xx_HAL_Driver/Src/stm32f1xx_hal_gpio.c ****       tmp = AFIO->EXTICR[position >> 2u];
 375:./Drivers1/STM32F1xx_HAL_Driver/Src/stm32f1xx_hal_gpio.c ****       tmp &= 0x0FuL << (4u * (position & 0x03u));
 376:./Drivers1/STM32F1xx_HAL_Driver/Src/stm32f1xx_hal_gpio.c ****       if (tmp == (GPIO_GET_INDEX(GPIOx) << (4u * (position & 0x03u))))
 377:./Drivers1/STM32F1xx_HAL_Driver/Src/stm32f1xx_hal_gpio.c ****       {
 378:./Drivers1/STM32F1xx_HAL_Driver/Src/stm32f1xx_hal_gpio.c ****         tmp = 0x0FuL << (4u * (position & 0x03u));
 379:./Drivers1/STM32F1xx_HAL_Driver/Src/stm32f1xx_hal_gpio.c ****         CLEAR_BIT(AFIO->EXTICR[position >> 2u], tmp);
 380:./Drivers1/STM32F1xx_HAL_Driver/Src/stm32f1xx_hal_gpio.c **** 
 381:./Drivers1/STM32F1xx_HAL_Driver/Src/stm32f1xx_hal_gpio.c ****         /* Clear EXTI line configuration */
 382:./Drivers1/STM32F1xx_HAL_Driver/Src/stm32f1xx_hal_gpio.c ****         CLEAR_BIT(EXTI->IMR, (uint32_t)iocurrent);
 361              		.loc 1 382 0
 362 0004 334A     		ldr	r2, .L65
 376:./Drivers1/STM32F1xx_HAL_Driver/Src/stm32f1xx_hal_gpio.c ****       {
 363              		.loc 1 376 0
 364 0006 DFF8D4B0 		ldr	fp, .L65+8
 353:./Drivers1/STM32F1xx_HAL_Driver/Src/stm32f1xx_hal_gpio.c ****   uint32_t position = 0x00u;
 365              		.loc 1 353 0
 366 000a 0023     		movs	r3, #0
 367:./Drivers1/STM32F1xx_HAL_Driver/Src/stm32f1xx_hal_gpio.c **** 
 367              		.loc 1 367 0
 368 000c 4FF00109 		mov	r9, #1
 375:./Drivers1/STM32F1xx_HAL_Driver/Src/stm32f1xx_hal_gpio.c ****       if (tmp == (GPIO_GET_INDEX(GPIOx) << (4u * (position & 0x03u))))
 369              		.loc 1 375 0
 370 0010 4FF00F0C 		mov	ip, #15
 383:./Drivers1/STM32F1xx_HAL_Driver/Src/stm32f1xx_hal_gpio.c ****         CLEAR_BIT(EXTI->EMR, (uint32_t)iocurrent);
 384:./Drivers1/STM32F1xx_HAL_Driver/Src/stm32f1xx_hal_gpio.c **** 
 385:./Drivers1/STM32F1xx_HAL_Driver/Src/stm32f1xx_hal_gpio.c ****         /* Clear Rising Falling edge configuration */
 386:./Drivers1/STM32F1xx_HAL_Driver/Src/stm32f1xx_hal_gpio.c ****         CLEAR_BIT(EXTI->RTSR, (uint32_t)iocurrent);
 387:./Drivers1/STM32F1xx_HAL_Driver/Src/stm32f1xx_hal_gpio.c ****         CLEAR_BIT(EXTI->FTSR, (uint32_t)iocurrent);
 388:./Drivers1/STM32F1xx_HAL_Driver/Src/stm32f1xx_hal_gpio.c ****       }
 389:./Drivers1/STM32F1xx_HAL_Driver/Src/stm32f1xx_hal_gpio.c ****       /*------------------------- GPIO Mode Configuration --------------------*/
 390:./Drivers1/STM32F1xx_HAL_Driver/Src/stm32f1xx_hal_gpio.c ****       /* Check if the current bit belongs to first half or last half of the pin count number
ARM GAS  /var/folders/jn/652hmfdj2m99syhs9p34dk640000gq/T//ccH05yHO.s 			page 15


 391:./Drivers1/STM32F1xx_HAL_Driver/Src/stm32f1xx_hal_gpio.c ****        in order to address CRH or CRL register */
 392:./Drivers1/STM32F1xx_HAL_Driver/Src/stm32f1xx_hal_gpio.c ****       configregister = (iocurrent < GPIO_PIN_8) ? &GPIOx->CRL     : &GPIOx->CRH;
 393:./Drivers1/STM32F1xx_HAL_Driver/Src/stm32f1xx_hal_gpio.c ****       registeroffset = (iocurrent < GPIO_PIN_8) ? (position << 2u) : ((position - 8u) << 2u);
 394:./Drivers1/STM32F1xx_HAL_Driver/Src/stm32f1xx_hal_gpio.c **** 
 395:./Drivers1/STM32F1xx_HAL_Driver/Src/stm32f1xx_hal_gpio.c ****       /* CRL/CRH default value is floating input(0x04) shifted to correct position */
 396:./Drivers1/STM32F1xx_HAL_Driver/Src/stm32f1xx_hal_gpio.c ****       MODIFY_REG(*configregister, ((GPIO_CRL_MODE0 | GPIO_CRL_CNF0) << registeroffset), GPIO_CRL_CN
 371              		.loc 1 396 0
 372 0014 4FF0040A 		mov	r10, #4
 373              	.LVL30:
 374              	.L50:
 364:./Drivers1/STM32F1xx_HAL_Driver/Src/stm32f1xx_hal_gpio.c ****   {
 375              		.loc 1 364 0
 376 0018 31FA03F4 		lsrs	r4, r1, r3
 377 001c 57D0     		beq	.L64
 367:./Drivers1/STM32F1xx_HAL_Driver/Src/stm32f1xx_hal_gpio.c **** 
 378              		.loc 1 367 0
 379 001e 09FA03F6 		lsl	r6, r9, r3
 380              	.LVL31:
 369:./Drivers1/STM32F1xx_HAL_Driver/Src/stm32f1xx_hal_gpio.c ****     {
 381              		.loc 1 369 0
 382 0022 0E40     		ands	r6, r6, r1
 383              	.LVL32:
 384 0024 51D0     		beq	.L51
 385 0026 23F00304 		bic	r4, r3, #3
 386 002a 04F18044 		add	r4, r4, #1073741824
 387 002e 04F58034 		add	r4, r4, #65536
 375:./Drivers1/STM32F1xx_HAL_Driver/Src/stm32f1xx_hal_gpio.c ****       if (tmp == (GPIO_GET_INDEX(GPIOx) << (4u * (position & 0x03u))))
 388              		.loc 1 375 0
 389 0032 03F00307 		and	r7, r3, #3
 374:./Drivers1/STM32F1xx_HAL_Driver/Src/stm32f1xx_hal_gpio.c ****       tmp &= 0x0FuL << (4u * (position & 0x03u));
 390              		.loc 1 374 0
 391 0036 A568     		ldr	r5, [r4, #8]
 392              	.LVL33:
 375:./Drivers1/STM32F1xx_HAL_Driver/Src/stm32f1xx_hal_gpio.c ****       if (tmp == (GPIO_GET_INDEX(GPIOx) << (4u * (position & 0x03u))))
 393              		.loc 1 375 0
 394 0038 BF00     		lsls	r7, r7, #2
 395 003a 0CFA07F8 		lsl	r8, ip, r7
 396 003e 05EA080E 		and	lr, r5, r8
 397              	.LVL34:
 376:./Drivers1/STM32F1xx_HAL_Driver/Src/stm32f1xx_hal_gpio.c ****       {
 398              		.loc 1 376 0
 399 0042 254D     		ldr	r5, .L65+4
 400 0044 A842     		cmp	r0, r5
 401 0046 0CD0     		beq	.L57
 376:./Drivers1/STM32F1xx_HAL_Driver/Src/stm32f1xx_hal_gpio.c ****       {
 402              		.loc 1 376 0 is_stmt 0 discriminator 1
 403 0048 05F58065 		add	r5, r5, #1024
 404 004c A842     		cmp	r0, r5
 405 004e 0AD0     		beq	.L58
 376:./Drivers1/STM32F1xx_HAL_Driver/Src/stm32f1xx_hal_gpio.c ****       {
 406              		.loc 1 376 0 discriminator 3
 407 0050 05F58065 		add	r5, r5, #1024
 408 0054 A842     		cmp	r0, r5
 409 0056 08D0     		beq	.L59
 376:./Drivers1/STM32F1xx_HAL_Driver/Src/stm32f1xx_hal_gpio.c ****       {
 410              		.loc 1 376 0 discriminator 5
 411 0058 5845     		cmp	r0, fp
ARM GAS  /var/folders/jn/652hmfdj2m99syhs9p34dk640000gq/T//ccH05yHO.s 			page 16


 412 005a 0CBF     		ite	eq
 413 005c 0325     		moveq	r5, #3
 414 005e 0425     		movne	r5, #4
 415 0060 04E0     		b	.L52
 416              	.L57:
 376:./Drivers1/STM32F1xx_HAL_Driver/Src/stm32f1xx_hal_gpio.c ****       {
 417              		.loc 1 376 0
 418 0062 0025     		movs	r5, #0
 419 0064 02E0     		b	.L52
 420              	.L58:
 421 0066 0125     		movs	r5, #1
 422 0068 00E0     		b	.L52
 423              	.L59:
 424 006a 0225     		movs	r5, #2
 425              	.L52:
 376:./Drivers1/STM32F1xx_HAL_Driver/Src/stm32f1xx_hal_gpio.c ****       {
 426              		.loc 1 376 0 discriminator 16
 427 006c BD40     		lsls	r5, r5, r7
 428 006e AE45     		cmp	lr, r5
 429 0070 6FEA0605 		mvn	r5, r6
 430 0074 0FD1     		bne	.L53
 431              	.LVL35:
 379:./Drivers1/STM32F1xx_HAL_Driver/Src/stm32f1xx_hal_gpio.c **** 
 432              		.loc 1 379 0 is_stmt 1
 433 0076 A768     		ldr	r7, [r4, #8]
 434 0078 27EA0807 		bic	r7, r7, r8
 435 007c A760     		str	r7, [r4, #8]
 382:./Drivers1/STM32F1xx_HAL_Driver/Src/stm32f1xx_hal_gpio.c ****         CLEAR_BIT(EXTI->EMR, (uint32_t)iocurrent);
 436              		.loc 1 382 0
 437 007e 1468     		ldr	r4, [r2]
 438 0080 2C40     		ands	r4, r4, r5
 439 0082 1460     		str	r4, [r2]
 383:./Drivers1/STM32F1xx_HAL_Driver/Src/stm32f1xx_hal_gpio.c **** 
 440              		.loc 1 383 0
 441 0084 5468     		ldr	r4, [r2, #4]
 442 0086 2C40     		ands	r4, r4, r5
 443 0088 5460     		str	r4, [r2, #4]
 386:./Drivers1/STM32F1xx_HAL_Driver/Src/stm32f1xx_hal_gpio.c ****         CLEAR_BIT(EXTI->FTSR, (uint32_t)iocurrent);
 444              		.loc 1 386 0
 445 008a 9468     		ldr	r4, [r2, #8]
 446 008c 2C40     		ands	r4, r4, r5
 447 008e 9460     		str	r4, [r2, #8]
 387:./Drivers1/STM32F1xx_HAL_Driver/Src/stm32f1xx_hal_gpio.c ****       }
 448              		.loc 1 387 0
 449 0090 D468     		ldr	r4, [r2, #12]
 450 0092 2C40     		ands	r4, r4, r5
 451 0094 D460     		str	r4, [r2, #12]
 452              	.LVL36:
 453              	.L53:
 392:./Drivers1/STM32F1xx_HAL_Driver/Src/stm32f1xx_hal_gpio.c ****       registeroffset = (iocurrent < GPIO_PIN_8) ? (position << 2u) : ((position - 8u) << 2u);
 454              		.loc 1 392 0
 455 0096 FF2E     		cmp	r6, #255
 456 0098 95BF     		itete	ls
 457 009a 8646     		movls	lr, r0
 393:./Drivers1/STM32F1xx_HAL_Driver/Src/stm32f1xx_hal_gpio.c **** 
 458              		.loc 1 393 0
 459 009c A3F10804 		subhi	r4, r3, #8
ARM GAS  /var/folders/jn/652hmfdj2m99syhs9p34dk640000gq/T//ccH05yHO.s 			page 17


 392:./Drivers1/STM32F1xx_HAL_Driver/Src/stm32f1xx_hal_gpio.c ****       registeroffset = (iocurrent < GPIO_PIN_8) ? (position << 2u) : ((position - 8u) << 2u);
 460              		.loc 1 392 0
 461 00a0 0668     		ldrls	r6, [r0]
 462              	.LVL37:
 463 00a2 4668     		ldrhi	r6, [r0, #4]
 393:./Drivers1/STM32F1xx_HAL_Driver/Src/stm32f1xx_hal_gpio.c **** 
 464              		.loc 1 393 0
 465 00a4 94BF     		ite	ls
 466 00a6 9C00     		lslls	r4, r3, #2
 467 00a8 A400     		lslhi	r4, r4, #2
 468              		.loc 1 396 0
 469 00aa 0CFA04F7 		lsl	r7, ip, r4
 470 00ae 26EA0706 		bic	r6, r6, r7
 471 00b2 0AFA04F4 		lsl	r4, r10, r4
 472 00b6 46EA0406 		orr	r6, r6, r4
 392:./Drivers1/STM32F1xx_HAL_Driver/Src/stm32f1xx_hal_gpio.c ****       registeroffset = (iocurrent < GPIO_PIN_8) ? (position << 2u) : ((position - 8u) << 2u);
 473              		.loc 1 392 0
 474 00ba 88BF     		it	hi
 475 00bc 00F1040E 		addhi	lr, r0, #4
 476              	.LVL38:
 477              		.loc 1 396 0
 478 00c0 CEF80060 		str	r6, [lr]
 397:./Drivers1/STM32F1xx_HAL_Driver/Src/stm32f1xx_hal_gpio.c **** 
 398:./Drivers1/STM32F1xx_HAL_Driver/Src/stm32f1xx_hal_gpio.c ****       /* ODR default value is 0 */
 399:./Drivers1/STM32F1xx_HAL_Driver/Src/stm32f1xx_hal_gpio.c ****       CLEAR_BIT(GPIOx->ODR, iocurrent);
 479              		.loc 1 399 0
 480 00c4 C468     		ldr	r4, [r0, #12]
 481 00c6 2540     		ands	r5, r5, r4
 482              	.LVL39:
 483 00c8 C560     		str	r5, [r0, #12]
 484              	.LVL40:
 485              	.L51:
 400:./Drivers1/STM32F1xx_HAL_Driver/Src/stm32f1xx_hal_gpio.c ****     }
 401:./Drivers1/STM32F1xx_HAL_Driver/Src/stm32f1xx_hal_gpio.c **** 
 402:./Drivers1/STM32F1xx_HAL_Driver/Src/stm32f1xx_hal_gpio.c ****     position++;
 486              		.loc 1 402 0
 487 00ca 0133     		adds	r3, r3, #1
 488              	.LVL41:
 489 00cc A4E7     		b	.L50
 490              	.LVL42:
 491              	.L64:
 403:./Drivers1/STM32F1xx_HAL_Driver/Src/stm32f1xx_hal_gpio.c ****   }
 404:./Drivers1/STM32F1xx_HAL_Driver/Src/stm32f1xx_hal_gpio.c **** }
 492              		.loc 1 404 0
 493 00ce BDE8F08F 		pop	{r4, r5, r6, r7, r8, r9, r10, fp, pc}
 494              	.L66:
 495 00d2 00BF     		.align	2
 496              	.L65:
 497 00d4 00040140 		.word	1073808384
 498 00d8 00080140 		.word	1073809408
 499 00dc 00140140 		.word	1073812480
 500              		.cfi_endproc
 501              	.LFE66:
 503              		.section	.text.HAL_GPIO_ReadPin,"ax",%progbits
 504              		.align	1
 505              		.global	HAL_GPIO_ReadPin
 506              		.thumb
ARM GAS  /var/folders/jn/652hmfdj2m99syhs9p34dk640000gq/T//ccH05yHO.s 			page 18


 507              		.thumb_func
 509              	HAL_GPIO_ReadPin:
 510              	.LFB67:
 405:./Drivers1/STM32F1xx_HAL_Driver/Src/stm32f1xx_hal_gpio.c **** 
 406:./Drivers1/STM32F1xx_HAL_Driver/Src/stm32f1xx_hal_gpio.c **** /**
 407:./Drivers1/STM32F1xx_HAL_Driver/Src/stm32f1xx_hal_gpio.c ****   * @}
 408:./Drivers1/STM32F1xx_HAL_Driver/Src/stm32f1xx_hal_gpio.c ****   */
 409:./Drivers1/STM32F1xx_HAL_Driver/Src/stm32f1xx_hal_gpio.c **** 
 410:./Drivers1/STM32F1xx_HAL_Driver/Src/stm32f1xx_hal_gpio.c **** /** @defgroup GPIO_Exported_Functions_Group2 IO operation functions
 411:./Drivers1/STM32F1xx_HAL_Driver/Src/stm32f1xx_hal_gpio.c ****  *  @brief   GPIO Read and Write
 412:./Drivers1/STM32F1xx_HAL_Driver/Src/stm32f1xx_hal_gpio.c ****  *
 413:./Drivers1/STM32F1xx_HAL_Driver/Src/stm32f1xx_hal_gpio.c **** @verbatim
 414:./Drivers1/STM32F1xx_HAL_Driver/Src/stm32f1xx_hal_gpio.c ****  ===============================================================================
 415:./Drivers1/STM32F1xx_HAL_Driver/Src/stm32f1xx_hal_gpio.c ****                        ##### IO operation functions #####
 416:./Drivers1/STM32F1xx_HAL_Driver/Src/stm32f1xx_hal_gpio.c ****  ===============================================================================
 417:./Drivers1/STM32F1xx_HAL_Driver/Src/stm32f1xx_hal_gpio.c ****   [..]
 418:./Drivers1/STM32F1xx_HAL_Driver/Src/stm32f1xx_hal_gpio.c ****     This subsection provides a set of functions allowing to manage the GPIOs.
 419:./Drivers1/STM32F1xx_HAL_Driver/Src/stm32f1xx_hal_gpio.c **** 
 420:./Drivers1/STM32F1xx_HAL_Driver/Src/stm32f1xx_hal_gpio.c **** @endverbatim
 421:./Drivers1/STM32F1xx_HAL_Driver/Src/stm32f1xx_hal_gpio.c ****   * @{
 422:./Drivers1/STM32F1xx_HAL_Driver/Src/stm32f1xx_hal_gpio.c ****   */
 423:./Drivers1/STM32F1xx_HAL_Driver/Src/stm32f1xx_hal_gpio.c **** 
 424:./Drivers1/STM32F1xx_HAL_Driver/Src/stm32f1xx_hal_gpio.c **** /**
 425:./Drivers1/STM32F1xx_HAL_Driver/Src/stm32f1xx_hal_gpio.c ****   * @brief  Reads the specified input port pin.
 426:./Drivers1/STM32F1xx_HAL_Driver/Src/stm32f1xx_hal_gpio.c ****   * @param  GPIOx: where x can be (A..G depending on device used) to select the GPIO peripheral
 427:./Drivers1/STM32F1xx_HAL_Driver/Src/stm32f1xx_hal_gpio.c ****   * @param  GPIO_Pin: specifies the port bit to read.
 428:./Drivers1/STM32F1xx_HAL_Driver/Src/stm32f1xx_hal_gpio.c ****   *         This parameter can be GPIO_PIN_x where x can be (0..15).
 429:./Drivers1/STM32F1xx_HAL_Driver/Src/stm32f1xx_hal_gpio.c ****   * @retval The input port pin value.
 430:./Drivers1/STM32F1xx_HAL_Driver/Src/stm32f1xx_hal_gpio.c ****   */
 431:./Drivers1/STM32F1xx_HAL_Driver/Src/stm32f1xx_hal_gpio.c **** GPIO_PinState HAL_GPIO_ReadPin(GPIO_TypeDef *GPIOx, uint16_t GPIO_Pin)
 432:./Drivers1/STM32F1xx_HAL_Driver/Src/stm32f1xx_hal_gpio.c **** {
 511              		.loc 1 432 0
 512              		.cfi_startproc
 513              		@ args = 0, pretend = 0, frame = 0
 514              		@ frame_needed = 0, uses_anonymous_args = 0
 515              		@ link register save eliminated.
 516              	.LVL43:
 433:./Drivers1/STM32F1xx_HAL_Driver/Src/stm32f1xx_hal_gpio.c ****   GPIO_PinState bitstatus;
 434:./Drivers1/STM32F1xx_HAL_Driver/Src/stm32f1xx_hal_gpio.c **** 
 435:./Drivers1/STM32F1xx_HAL_Driver/Src/stm32f1xx_hal_gpio.c ****   /* Check the parameters */
 436:./Drivers1/STM32F1xx_HAL_Driver/Src/stm32f1xx_hal_gpio.c ****   assert_param(IS_GPIO_PIN(GPIO_Pin));
 437:./Drivers1/STM32F1xx_HAL_Driver/Src/stm32f1xx_hal_gpio.c **** 
 438:./Drivers1/STM32F1xx_HAL_Driver/Src/stm32f1xx_hal_gpio.c ****   if ((GPIOx->IDR & GPIO_Pin) != (uint32_t)GPIO_PIN_RESET)
 517              		.loc 1 438 0
 518 0000 8368     		ldr	r3, [r0, #8]
 519              	.LVL44:
 439:./Drivers1/STM32F1xx_HAL_Driver/Src/stm32f1xx_hal_gpio.c ****   {
 440:./Drivers1/STM32F1xx_HAL_Driver/Src/stm32f1xx_hal_gpio.c ****     bitstatus = GPIO_PIN_SET;
 441:./Drivers1/STM32F1xx_HAL_Driver/Src/stm32f1xx_hal_gpio.c ****   }
 442:./Drivers1/STM32F1xx_HAL_Driver/Src/stm32f1xx_hal_gpio.c ****   else
 443:./Drivers1/STM32F1xx_HAL_Driver/Src/stm32f1xx_hal_gpio.c ****   {
 444:./Drivers1/STM32F1xx_HAL_Driver/Src/stm32f1xx_hal_gpio.c ****     bitstatus = GPIO_PIN_RESET;
 445:./Drivers1/STM32F1xx_HAL_Driver/Src/stm32f1xx_hal_gpio.c ****   }
 446:./Drivers1/STM32F1xx_HAL_Driver/Src/stm32f1xx_hal_gpio.c ****   return bitstatus;
 520              		.loc 1 446 0
 521 0002 1942     		tst	r1, r3
 447:./Drivers1/STM32F1xx_HAL_Driver/Src/stm32f1xx_hal_gpio.c **** }
ARM GAS  /var/folders/jn/652hmfdj2m99syhs9p34dk640000gq/T//ccH05yHO.s 			page 19


 522              		.loc 1 447 0
 523 0004 14BF     		ite	ne
 524 0006 0120     		movne	r0, #1
 525              	.LVL45:
 526 0008 0020     		moveq	r0, #0
 527 000a 7047     		bx	lr
 528              		.cfi_endproc
 529              	.LFE67:
 531              		.section	.text.HAL_GPIO_WritePin,"ax",%progbits
 532              		.align	1
 533              		.global	HAL_GPIO_WritePin
 534              		.thumb
 535              		.thumb_func
 537              	HAL_GPIO_WritePin:
 538              	.LFB68:
 448:./Drivers1/STM32F1xx_HAL_Driver/Src/stm32f1xx_hal_gpio.c **** 
 449:./Drivers1/STM32F1xx_HAL_Driver/Src/stm32f1xx_hal_gpio.c **** /**
 450:./Drivers1/STM32F1xx_HAL_Driver/Src/stm32f1xx_hal_gpio.c ****   * @brief  Sets or clears the selected data port bit.
 451:./Drivers1/STM32F1xx_HAL_Driver/Src/stm32f1xx_hal_gpio.c ****   *
 452:./Drivers1/STM32F1xx_HAL_Driver/Src/stm32f1xx_hal_gpio.c ****   * @note   This function uses GPIOx_BSRR register to allow atomic read/modify
 453:./Drivers1/STM32F1xx_HAL_Driver/Src/stm32f1xx_hal_gpio.c ****   *         accesses. In this way, there is no risk of an IRQ occurring between
 454:./Drivers1/STM32F1xx_HAL_Driver/Src/stm32f1xx_hal_gpio.c ****   *         the read and the modify access.
 455:./Drivers1/STM32F1xx_HAL_Driver/Src/stm32f1xx_hal_gpio.c ****   *
 456:./Drivers1/STM32F1xx_HAL_Driver/Src/stm32f1xx_hal_gpio.c ****   * @param  GPIOx: where x can be (A..G depending on device used) to select the GPIO peripheral
 457:./Drivers1/STM32F1xx_HAL_Driver/Src/stm32f1xx_hal_gpio.c ****   * @param  GPIO_Pin: specifies the port bit to be written.
 458:./Drivers1/STM32F1xx_HAL_Driver/Src/stm32f1xx_hal_gpio.c ****   *          This parameter can be one of GPIO_PIN_x where x can be (0..15).
 459:./Drivers1/STM32F1xx_HAL_Driver/Src/stm32f1xx_hal_gpio.c ****   * @param  PinState: specifies the value to be written to the selected bit.
 460:./Drivers1/STM32F1xx_HAL_Driver/Src/stm32f1xx_hal_gpio.c ****   *          This parameter can be one of the GPIO_PinState enum values:
 461:./Drivers1/STM32F1xx_HAL_Driver/Src/stm32f1xx_hal_gpio.c ****   *            @arg GPIO_PIN_RESET: to clear the port pin
 462:./Drivers1/STM32F1xx_HAL_Driver/Src/stm32f1xx_hal_gpio.c ****   *            @arg GPIO_PIN_SET: to set the port pin
 463:./Drivers1/STM32F1xx_HAL_Driver/Src/stm32f1xx_hal_gpio.c ****   * @retval None
 464:./Drivers1/STM32F1xx_HAL_Driver/Src/stm32f1xx_hal_gpio.c ****   */
 465:./Drivers1/STM32F1xx_HAL_Driver/Src/stm32f1xx_hal_gpio.c **** void HAL_GPIO_WritePin(GPIO_TypeDef *GPIOx, uint16_t GPIO_Pin, GPIO_PinState PinState)
 466:./Drivers1/STM32F1xx_HAL_Driver/Src/stm32f1xx_hal_gpio.c **** {
 539              		.loc 1 466 0
 540              		.cfi_startproc
 541              		@ args = 0, pretend = 0, frame = 0
 542              		@ frame_needed = 0, uses_anonymous_args = 0
 543              		@ link register save eliminated.
 544              	.LVL46:
 467:./Drivers1/STM32F1xx_HAL_Driver/Src/stm32f1xx_hal_gpio.c ****   /* Check the parameters */
 468:./Drivers1/STM32F1xx_HAL_Driver/Src/stm32f1xx_hal_gpio.c ****   assert_param(IS_GPIO_PIN(GPIO_Pin));
 469:./Drivers1/STM32F1xx_HAL_Driver/Src/stm32f1xx_hal_gpio.c ****   assert_param(IS_GPIO_PIN_ACTION(PinState));
 470:./Drivers1/STM32F1xx_HAL_Driver/Src/stm32f1xx_hal_gpio.c **** 
 471:./Drivers1/STM32F1xx_HAL_Driver/Src/stm32f1xx_hal_gpio.c ****   if (PinState != GPIO_PIN_RESET)
 545              		.loc 1 471 0
 546 0000 02B9     		cbnz	r2, .L71
 472:./Drivers1/STM32F1xx_HAL_Driver/Src/stm32f1xx_hal_gpio.c ****   {
 473:./Drivers1/STM32F1xx_HAL_Driver/Src/stm32f1xx_hal_gpio.c ****     GPIOx->BSRR = GPIO_Pin;
 474:./Drivers1/STM32F1xx_HAL_Driver/Src/stm32f1xx_hal_gpio.c ****   }
 475:./Drivers1/STM32F1xx_HAL_Driver/Src/stm32f1xx_hal_gpio.c ****   else
 476:./Drivers1/STM32F1xx_HAL_Driver/Src/stm32f1xx_hal_gpio.c ****   {
 477:./Drivers1/STM32F1xx_HAL_Driver/Src/stm32f1xx_hal_gpio.c ****     GPIOx->BSRR = (uint32_t)GPIO_Pin << 16u;
 547              		.loc 1 477 0
 548 0002 0904     		lsls	r1, r1, #16
 549              	.LVL47:
 550              	.L71:
ARM GAS  /var/folders/jn/652hmfdj2m99syhs9p34dk640000gq/T//ccH05yHO.s 			page 20


 551 0004 0161     		str	r1, [r0, #16]
 552 0006 7047     		bx	lr
 553              		.cfi_endproc
 554              	.LFE68:
 556              		.section	.text.HAL_GPIO_TogglePin,"ax",%progbits
 557              		.align	1
 558              		.global	HAL_GPIO_TogglePin
 559              		.thumb
 560              		.thumb_func
 562              	HAL_GPIO_TogglePin:
 563              	.LFB69:
 478:./Drivers1/STM32F1xx_HAL_Driver/Src/stm32f1xx_hal_gpio.c ****   }
 479:./Drivers1/STM32F1xx_HAL_Driver/Src/stm32f1xx_hal_gpio.c **** }
 480:./Drivers1/STM32F1xx_HAL_Driver/Src/stm32f1xx_hal_gpio.c **** 
 481:./Drivers1/STM32F1xx_HAL_Driver/Src/stm32f1xx_hal_gpio.c **** /**
 482:./Drivers1/STM32F1xx_HAL_Driver/Src/stm32f1xx_hal_gpio.c ****   * @brief  Toggles the specified GPIO pin
 483:./Drivers1/STM32F1xx_HAL_Driver/Src/stm32f1xx_hal_gpio.c ****   * @param  GPIOx: where x can be (A..G depending on device used) to select the GPIO peripheral
 484:./Drivers1/STM32F1xx_HAL_Driver/Src/stm32f1xx_hal_gpio.c ****   * @param  GPIO_Pin: Specifies the pins to be toggled.
 485:./Drivers1/STM32F1xx_HAL_Driver/Src/stm32f1xx_hal_gpio.c ****   * @retval None
 486:./Drivers1/STM32F1xx_HAL_Driver/Src/stm32f1xx_hal_gpio.c ****   */
 487:./Drivers1/STM32F1xx_HAL_Driver/Src/stm32f1xx_hal_gpio.c **** void HAL_GPIO_TogglePin(GPIO_TypeDef *GPIOx, uint16_t GPIO_Pin)
 488:./Drivers1/STM32F1xx_HAL_Driver/Src/stm32f1xx_hal_gpio.c **** {
 564              		.loc 1 488 0
 565              		.cfi_startproc
 566              		@ args = 0, pretend = 0, frame = 0
 567              		@ frame_needed = 0, uses_anonymous_args = 0
 568              		@ link register save eliminated.
 569              	.LVL48:
 489:./Drivers1/STM32F1xx_HAL_Driver/Src/stm32f1xx_hal_gpio.c ****   /* Check the parameters */
 490:./Drivers1/STM32F1xx_HAL_Driver/Src/stm32f1xx_hal_gpio.c ****   assert_param(IS_GPIO_PIN(GPIO_Pin));
 491:./Drivers1/STM32F1xx_HAL_Driver/Src/stm32f1xx_hal_gpio.c **** 
 492:./Drivers1/STM32F1xx_HAL_Driver/Src/stm32f1xx_hal_gpio.c ****   if ((GPIOx->ODR & GPIO_Pin) != 0x00u)
 570              		.loc 1 492 0
 571 0000 C368     		ldr	r3, [r0, #12]
 572 0002 0B42     		tst	r3, r1
 493:./Drivers1/STM32F1xx_HAL_Driver/Src/stm32f1xx_hal_gpio.c ****   {
 494:./Drivers1/STM32F1xx_HAL_Driver/Src/stm32f1xx_hal_gpio.c ****     GPIOx->BRR = (uint32_t)GPIO_Pin;
 573              		.loc 1 494 0
 574 0004 14BF     		ite	ne
 575 0006 4161     		strne	r1, [r0, #20]
 495:./Drivers1/STM32F1xx_HAL_Driver/Src/stm32f1xx_hal_gpio.c ****   }
 496:./Drivers1/STM32F1xx_HAL_Driver/Src/stm32f1xx_hal_gpio.c ****   else
 497:./Drivers1/STM32F1xx_HAL_Driver/Src/stm32f1xx_hal_gpio.c ****   {
 498:./Drivers1/STM32F1xx_HAL_Driver/Src/stm32f1xx_hal_gpio.c ****     GPIOx->BSRR = (uint32_t)GPIO_Pin;
 576              		.loc 1 498 0
 577 0008 0161     		streq	r1, [r0, #16]
 578 000a 7047     		bx	lr
 579              		.cfi_endproc
 580              	.LFE69:
 582              		.section	.text.HAL_GPIO_LockPin,"ax",%progbits
 583              		.align	1
 584              		.global	HAL_GPIO_LockPin
 585              		.thumb
 586              		.thumb_func
 588              	HAL_GPIO_LockPin:
 589              	.LFB70:
 499:./Drivers1/STM32F1xx_HAL_Driver/Src/stm32f1xx_hal_gpio.c ****   }
ARM GAS  /var/folders/jn/652hmfdj2m99syhs9p34dk640000gq/T//ccH05yHO.s 			page 21


 500:./Drivers1/STM32F1xx_HAL_Driver/Src/stm32f1xx_hal_gpio.c **** }
 501:./Drivers1/STM32F1xx_HAL_Driver/Src/stm32f1xx_hal_gpio.c **** 
 502:./Drivers1/STM32F1xx_HAL_Driver/Src/stm32f1xx_hal_gpio.c **** /**
 503:./Drivers1/STM32F1xx_HAL_Driver/Src/stm32f1xx_hal_gpio.c **** * @brief  Locks GPIO Pins configuration registers.
 504:./Drivers1/STM32F1xx_HAL_Driver/Src/stm32f1xx_hal_gpio.c **** * @note   The locking mechanism allows the IO configuration to be frozen. When the LOCK sequence
 505:./Drivers1/STM32F1xx_HAL_Driver/Src/stm32f1xx_hal_gpio.c **** *         has been applied on a port bit, it is no longer possible to modify the value of the port 
 506:./Drivers1/STM32F1xx_HAL_Driver/Src/stm32f1xx_hal_gpio.c **** *         the next reset.
 507:./Drivers1/STM32F1xx_HAL_Driver/Src/stm32f1xx_hal_gpio.c **** * @param  GPIOx: where x can be (A..G depending on device used) to select the GPIO peripheral
 508:./Drivers1/STM32F1xx_HAL_Driver/Src/stm32f1xx_hal_gpio.c **** * @param  GPIO_Pin: specifies the port bit to be locked.
 509:./Drivers1/STM32F1xx_HAL_Driver/Src/stm32f1xx_hal_gpio.c **** *         This parameter can be any combination of GPIO_Pin_x where x can be (0..15).
 510:./Drivers1/STM32F1xx_HAL_Driver/Src/stm32f1xx_hal_gpio.c **** * @retval None
 511:./Drivers1/STM32F1xx_HAL_Driver/Src/stm32f1xx_hal_gpio.c **** */
 512:./Drivers1/STM32F1xx_HAL_Driver/Src/stm32f1xx_hal_gpio.c **** HAL_StatusTypeDef HAL_GPIO_LockPin(GPIO_TypeDef *GPIOx, uint16_t GPIO_Pin)
 513:./Drivers1/STM32F1xx_HAL_Driver/Src/stm32f1xx_hal_gpio.c **** {
 590              		.loc 1 513 0
 591              		.cfi_startproc
 592              		@ args = 0, pretend = 0, frame = 8
 593              		@ frame_needed = 0, uses_anonymous_args = 0
 594              		@ link register save eliminated.
 595              	.LVL49:
 596 0000 82B0     		sub	sp, sp, #8
 597              	.LCFI4:
 598              		.cfi_def_cfa_offset 8
 514:./Drivers1/STM32F1xx_HAL_Driver/Src/stm32f1xx_hal_gpio.c ****   __IO uint32_t tmp = GPIO_LCKR_LCKK;
 599              		.loc 1 514 0
 600 0002 4FF48033 		mov	r3, #65536
 601 0006 0193     		str	r3, [sp, #4]
 515:./Drivers1/STM32F1xx_HAL_Driver/Src/stm32f1xx_hal_gpio.c **** 
 516:./Drivers1/STM32F1xx_HAL_Driver/Src/stm32f1xx_hal_gpio.c ****   /* Check the parameters */
 517:./Drivers1/STM32F1xx_HAL_Driver/Src/stm32f1xx_hal_gpio.c ****   assert_param(IS_GPIO_LOCK_INSTANCE(GPIOx));
 518:./Drivers1/STM32F1xx_HAL_Driver/Src/stm32f1xx_hal_gpio.c ****   assert_param(IS_GPIO_PIN(GPIO_Pin));
 519:./Drivers1/STM32F1xx_HAL_Driver/Src/stm32f1xx_hal_gpio.c **** 
 520:./Drivers1/STM32F1xx_HAL_Driver/Src/stm32f1xx_hal_gpio.c ****   /* Apply lock key write sequence */
 521:./Drivers1/STM32F1xx_HAL_Driver/Src/stm32f1xx_hal_gpio.c ****   SET_BIT(tmp, GPIO_Pin);
 602              		.loc 1 521 0
 603 0008 019B     		ldr	r3, [sp, #4]
 604 000a 0B43     		orrs	r3, r3, r1
 605 000c 0193     		str	r3, [sp, #4]
 522:./Drivers1/STM32F1xx_HAL_Driver/Src/stm32f1xx_hal_gpio.c ****   /* Set LCKx bit(s): LCKK='1' + LCK[15-0] */
 523:./Drivers1/STM32F1xx_HAL_Driver/Src/stm32f1xx_hal_gpio.c ****   GPIOx->LCKR = tmp;
 606              		.loc 1 523 0
 607 000e 019B     		ldr	r3, [sp, #4]
 608 0010 8361     		str	r3, [r0, #24]
 524:./Drivers1/STM32F1xx_HAL_Driver/Src/stm32f1xx_hal_gpio.c ****   /* Reset LCKx bit(s): LCKK='0' + LCK[15-0] */
 525:./Drivers1/STM32F1xx_HAL_Driver/Src/stm32f1xx_hal_gpio.c ****   GPIOx->LCKR = GPIO_Pin;
 609              		.loc 1 525 0
 610 0012 8161     		str	r1, [r0, #24]
 526:./Drivers1/STM32F1xx_HAL_Driver/Src/stm32f1xx_hal_gpio.c ****   /* Set LCKx bit(s): LCKK='1' + LCK[15-0] */
 527:./Drivers1/STM32F1xx_HAL_Driver/Src/stm32f1xx_hal_gpio.c ****   GPIOx->LCKR = tmp;
 611              		.loc 1 527 0
 612 0014 019B     		ldr	r3, [sp, #4]
 613 0016 8361     		str	r3, [r0, #24]
 528:./Drivers1/STM32F1xx_HAL_Driver/Src/stm32f1xx_hal_gpio.c ****   /* Read LCKK register. This read is mandatory to complete key lock sequence */
 529:./Drivers1/STM32F1xx_HAL_Driver/Src/stm32f1xx_hal_gpio.c ****   tmp = GPIOx->LCKR;
 614              		.loc 1 529 0
 615 0018 8369     		ldr	r3, [r0, #24]
 616 001a 0193     		str	r3, [sp, #4]
ARM GAS  /var/folders/jn/652hmfdj2m99syhs9p34dk640000gq/T//ccH05yHO.s 			page 22


 530:./Drivers1/STM32F1xx_HAL_Driver/Src/stm32f1xx_hal_gpio.c **** 
 531:./Drivers1/STM32F1xx_HAL_Driver/Src/stm32f1xx_hal_gpio.c ****   /* read again in order to confirm lock is active */
 532:./Drivers1/STM32F1xx_HAL_Driver/Src/stm32f1xx_hal_gpio.c ****   if ((uint32_t)(GPIOx->LCKR & GPIO_LCKR_LCKK))
 617              		.loc 1 532 0
 618 001c 8069     		ldr	r0, [r0, #24]
 619              	.LVL50:
 620 001e 80F48030 		eor	r0, r0, #65536
 533:./Drivers1/STM32F1xx_HAL_Driver/Src/stm32f1xx_hal_gpio.c ****   {
 534:./Drivers1/STM32F1xx_HAL_Driver/Src/stm32f1xx_hal_gpio.c ****     return HAL_OK;
 535:./Drivers1/STM32F1xx_HAL_Driver/Src/stm32f1xx_hal_gpio.c ****   }
 536:./Drivers1/STM32F1xx_HAL_Driver/Src/stm32f1xx_hal_gpio.c ****   else
 537:./Drivers1/STM32F1xx_HAL_Driver/Src/stm32f1xx_hal_gpio.c ****   {
 538:./Drivers1/STM32F1xx_HAL_Driver/Src/stm32f1xx_hal_gpio.c ****     return HAL_ERROR;
 539:./Drivers1/STM32F1xx_HAL_Driver/Src/stm32f1xx_hal_gpio.c ****   }
 540:./Drivers1/STM32F1xx_HAL_Driver/Src/stm32f1xx_hal_gpio.c **** }
 621              		.loc 1 540 0
 622 0022 C0F30040 		ubfx	r0, r0, #16, #1
 623 0026 02B0     		add	sp, sp, #8
 624              	.LCFI5:
 625              		.cfi_def_cfa_offset 0
 626              		@ sp needed
 627 0028 7047     		bx	lr
 628              		.cfi_endproc
 629              	.LFE70:
 631              		.section	.text.HAL_GPIO_EXTI_Callback,"ax",%progbits
 632              		.align	1
 633              		.weak	HAL_GPIO_EXTI_Callback
 634              		.thumb
 635              		.thumb_func
 637              	HAL_GPIO_EXTI_Callback:
 638              	.LFB72:
 541:./Drivers1/STM32F1xx_HAL_Driver/Src/stm32f1xx_hal_gpio.c **** 
 542:./Drivers1/STM32F1xx_HAL_Driver/Src/stm32f1xx_hal_gpio.c **** /**
 543:./Drivers1/STM32F1xx_HAL_Driver/Src/stm32f1xx_hal_gpio.c ****   * @brief  This function handles EXTI interrupt request.
 544:./Drivers1/STM32F1xx_HAL_Driver/Src/stm32f1xx_hal_gpio.c ****   * @param  GPIO_Pin: Specifies the pins connected EXTI line
 545:./Drivers1/STM32F1xx_HAL_Driver/Src/stm32f1xx_hal_gpio.c ****   * @retval None
 546:./Drivers1/STM32F1xx_HAL_Driver/Src/stm32f1xx_hal_gpio.c ****   */
 547:./Drivers1/STM32F1xx_HAL_Driver/Src/stm32f1xx_hal_gpio.c **** void HAL_GPIO_EXTI_IRQHandler(uint16_t GPIO_Pin)
 548:./Drivers1/STM32F1xx_HAL_Driver/Src/stm32f1xx_hal_gpio.c **** {
 549:./Drivers1/STM32F1xx_HAL_Driver/Src/stm32f1xx_hal_gpio.c ****   /* EXTI line interrupt detected */
 550:./Drivers1/STM32F1xx_HAL_Driver/Src/stm32f1xx_hal_gpio.c ****   if (__HAL_GPIO_EXTI_GET_IT(GPIO_Pin) != 0x00u)
 551:./Drivers1/STM32F1xx_HAL_Driver/Src/stm32f1xx_hal_gpio.c ****   {
 552:./Drivers1/STM32F1xx_HAL_Driver/Src/stm32f1xx_hal_gpio.c ****     __HAL_GPIO_EXTI_CLEAR_IT(GPIO_Pin);
 553:./Drivers1/STM32F1xx_HAL_Driver/Src/stm32f1xx_hal_gpio.c ****     HAL_GPIO_EXTI_Callback(GPIO_Pin);
 554:./Drivers1/STM32F1xx_HAL_Driver/Src/stm32f1xx_hal_gpio.c ****   }
 555:./Drivers1/STM32F1xx_HAL_Driver/Src/stm32f1xx_hal_gpio.c **** }
 556:./Drivers1/STM32F1xx_HAL_Driver/Src/stm32f1xx_hal_gpio.c **** 
 557:./Drivers1/STM32F1xx_HAL_Driver/Src/stm32f1xx_hal_gpio.c **** /**
 558:./Drivers1/STM32F1xx_HAL_Driver/Src/stm32f1xx_hal_gpio.c ****   * @brief  EXTI line detection callbacks.
 559:./Drivers1/STM32F1xx_HAL_Driver/Src/stm32f1xx_hal_gpio.c ****   * @param  GPIO_Pin: Specifies the pins connected EXTI line
 560:./Drivers1/STM32F1xx_HAL_Driver/Src/stm32f1xx_hal_gpio.c ****   * @retval None
 561:./Drivers1/STM32F1xx_HAL_Driver/Src/stm32f1xx_hal_gpio.c ****   */
 562:./Drivers1/STM32F1xx_HAL_Driver/Src/stm32f1xx_hal_gpio.c **** __weak void HAL_GPIO_EXTI_Callback(uint16_t GPIO_Pin)
 563:./Drivers1/STM32F1xx_HAL_Driver/Src/stm32f1xx_hal_gpio.c **** {
 639              		.loc 1 563 0
 640              		.cfi_startproc
 641              		@ args = 0, pretend = 0, frame = 0
ARM GAS  /var/folders/jn/652hmfdj2m99syhs9p34dk640000gq/T//ccH05yHO.s 			page 23


 642              		@ frame_needed = 0, uses_anonymous_args = 0
 643              		@ link register save eliminated.
 644              	.LVL51:
 645 0000 7047     		bx	lr
 646              		.cfi_endproc
 647              	.LFE72:
 649              		.section	.text.HAL_GPIO_EXTI_IRQHandler,"ax",%progbits
 650              		.align	1
 651              		.global	HAL_GPIO_EXTI_IRQHandler
 652              		.thumb
 653              		.thumb_func
 655              	HAL_GPIO_EXTI_IRQHandler:
 656              	.LFB71:
 548:./Drivers1/STM32F1xx_HAL_Driver/Src/stm32f1xx_hal_gpio.c ****   /* EXTI line interrupt detected */
 657              		.loc 1 548 0
 658              		.cfi_startproc
 659              		@ args = 0, pretend = 0, frame = 0
 660              		@ frame_needed = 0, uses_anonymous_args = 0
 661              	.LVL52:
 548:./Drivers1/STM32F1xx_HAL_Driver/Src/stm32f1xx_hal_gpio.c ****   /* EXTI line interrupt detected */
 662              		.loc 1 548 0
 663 0000 08B5     		push	{r3, lr}
 664              	.LCFI6:
 665              		.cfi_def_cfa_offset 8
 666              		.cfi_offset 3, -8
 667              		.cfi_offset 14, -4
 550:./Drivers1/STM32F1xx_HAL_Driver/Src/stm32f1xx_hal_gpio.c ****   {
 668              		.loc 1 550 0
 669 0002 044B     		ldr	r3, .L82
 670 0004 5969     		ldr	r1, [r3, #20]
 671 0006 0142     		tst	r1, r0
 672 0008 02D0     		beq	.L77
 552:./Drivers1/STM32F1xx_HAL_Driver/Src/stm32f1xx_hal_gpio.c ****     HAL_GPIO_EXTI_Callback(GPIO_Pin);
 673              		.loc 1 552 0
 674 000a 5861     		str	r0, [r3, #20]
 553:./Drivers1/STM32F1xx_HAL_Driver/Src/stm32f1xx_hal_gpio.c ****   }
 675              		.loc 1 553 0
 676 000c FFF7FEFF 		bl	HAL_GPIO_EXTI_Callback
 677              	.LVL53:
 678              	.L77:
 679 0010 08BD     		pop	{r3, pc}
 680              	.L83:
 681 0012 00BF     		.align	2
 682              	.L82:
 683 0014 00040140 		.word	1073808384
 684              		.cfi_endproc
 685              	.LFE71:
 687              		.text
 688              	.Letext0:
 689              		.file 2 "/usr/local/Cellar/gcc-arm-none-eabi/20160928/arm-none-eabi/include/machine/_default_types
 690              		.file 3 "/usr/local/Cellar/gcc-arm-none-eabi/20160928/arm-none-eabi/include/sys/_stdint.h"
 691              		.file 4 "./Drivers1/CMSIS/Device/ST/STM32F1xx/Include/stm32f103xb.h"
 692              		.file 5 "./Drivers1/STM32F1xx_HAL_Driver/Inc/stm32f1xx_hal_def.h"
 693              		.file 6 "./Drivers1/STM32F1xx_HAL_Driver/Inc/stm32f1xx_hal_gpio.h"
 694              		.file 7 "./Drivers1/CMSIS/Include/core_cm3.h"
ARM GAS  /var/folders/jn/652hmfdj2m99syhs9p34dk640000gq/T//ccH05yHO.s 			page 24

